(lp0
(I2845
F0.0063854819327437634
tp1
a(I1607
F0.006415205327559162
tp2
a(I1619
F0.006716757597899763
tp3
a(I3189
F0.006751974402881462
tp4
a(I1576
F0.006779446495168416
tp5
a(I3215
F0.0068038478173664645
tp6
a(I3251
F0.006809727970531783
tp7
a(I1579
F0.006906177404678931
tp8
a(I3231
F0.006911348553959327
tp9
a(I3298
F0.0069272565397919365
tp10
a(I2983
F0.006977690351756308
tp11
a(I2424
F0.007015575486783949
tp12
a(I3380
F0.007028428307358552
tp13
a(I3386
F0.007033654018253622
tp14
a(I3449
F0.007075307872952444
tp15
a(I3211
F0.007086957565285266
tp16
a(I1620
F0.007087589957683689
tp17
a(I2549
F0.007089883588828379
tp18
a(I3261
F0.007093349147340262
tp19
a(I310
F0.007108162756587929
tp20
a(I3278
F0.007117991225426626
tp21
a(I1545
F0.007135229232745614
tp22
a(I1605
F0.0072001992119153715
tp23
a(I283
F0.007258179353305346
tp24
a(I3418
F0.007296581465628883
tp25
a(I3247
F0.007298016864987952
tp26
a(I1568
F0.007299383140270785
tp27
a(I3385
F0.007339265127032975
tp28
a(I3208
F0.007340347100595468
tp29
a(I3446
F0.007409864557622162
tp30
a(I3460
F0.007418363208040232
tp31
a(I3440
F0.00743570315411892
tp32
a(I3393
F0.007444112532716479
tp33
a(I1503
F0.00746475494748974
tp34
a(I3249
F0.007494839897040968
tp35
a(I3067
F0.00749658063735529
tp36
a(I3285
F0.007499173402595823
tp37
a(I2481
F0.00752081316105986
tp38
a(I366
F0.007549180660261286
tp39
a(I1544
F0.007559461709194788
tp40
a(I3212
F0.007574884892631261
tp41
a(I3222
F0.007583217329417509
tp42
a(I3263
F0.007592917841632998
tp43
a(I3248
F0.007599588065595208
tp44
a(I1575
F0.007606945356627856
tp45
a(I3370
F0.007614662504246815
tp46
a(I3317
F0.007614790578645328
tp47
a(I2857
F0.007632381676822535
tp48
a(I1609
F0.007639173413983954
tp49
a(I3324
F0.007640720545014875
tp50
a(I3201
F0.007648369580333369
tp51
a(I3467
F0.007649750142288458
tp52
a(I3156
F0.007659697975414749
tp53
a(I3439
F0.007674298677148332
tp54
a(I3527
F0.007675679152978593
tp55
a(I3289
F0.007694181135639654
tp56
a(I3352
F0.007699918727328828
tp57
a(I3299
F0.007706136529203424
tp58
a(I3372
F0.007709017023519584
tp59
a(I3497
F0.007724246423438747
tp60
a(I3454
F0.0077265408283408
tp61
a(I3292
F0.007736742879358206
tp62
a(I3486
F0.007754518196078005
tp63
a(I1554
F0.007762490059067043
tp64
a(I1064
F0.007768181600223035
tp65
a(I1543
F0.007773994891561018
tp66
a(I3430
F0.007798945324415536
tp67
a(I1584
F0.007799845849109427
tp68
a(I3455
F0.007804852086869324
tp69
a(I3279
F0.0078111272242613865
tp70
a(I3514
F0.007816479981008926
tp71
a(I3475
F0.007838811216513626
tp72
a(I3507
F0.007853023999361204
tp73
a(I3495
F0.00786064676239099
tp74
a(I3199
F0.00787289607757345
tp75
a(I3513
F0.007883368338481469
tp76
a(I3162
F0.007903304991626982
tp77
a(I3520
F0.0079034851991058
tp78
a(I1338
F0.007906376952053628
tp79
a(I3301
F0.007906635934505496
tp80
a(I3431
F0.007919988121377921
tp81
a(I3260
F0.007927674311827592
tp82
a(I3159
F0.00792942657118954
tp83
a(I3281
F0.00794477955945407
tp84
a(I3474
F0.007973189677732332
tp85
a(I3480
F0.00799257846135369
tp86
a(I3442
F0.007997231486140313
tp87
a(I3270
F0.007999253607874226
tp88
a(I3257
F0.008002202443381906
tp89
a(I3448
F0.008009149738606123
tp90
a(I3238
F0.008029308315081413
tp91
a(I3228
F0.008035634915182145
tp92
a(I3291
F0.008061148212397338
tp93
a(I3428
F0.008064787915646006
tp94
a(I3245
F0.008071213900082776
tp95
a(I804
F0.008072890578064429
tp96
a(I3264
F0.008077176274412956
tp97
a(I1339
F0.0080794778509023
tp98
a(I3274
F0.008086218499697977
tp99
a(I1572
F0.008092272365594767
tp100
a(I3216
F0.008093281650855573
tp101
a(I3288
F0.00810309774243087
tp102
a(I3499
F0.00811467143725199
tp103
a(I3502
F0.008129717097312198
tp104
a(I3303
F0.008139078949440926
tp105
a(I3607
F0.008141944921147483
tp106
a(I3532
F0.00814243468957981
tp107
a(I3309
F0.008145391011761526
tp108
a(I3328
F0.008154664399485685
tp109
a(I3243
F0.008197526920227889
tp110
a(I2261
F0.008199542177469507
tp111
a(I3459
F0.008205871401297355
tp112
a(I3255
F0.008223835834055246
tp113
a(I2847
F0.008259355790166394
tp114
a(I1547
F0.008259684276165623
tp115
a(I3398
F0.008283820627108864
tp116
a(I3295
F0.008286364869068025
tp117
a(I1552
F0.008290005938114008
tp118
a(I3471
F0.008305483593828015
tp119
a(I1582
F0.008315921117695068
tp120
a(I1600
F0.008328349335215595
tp121
a(I1618
F0.008330641147688563
tp122
a(I3543
F0.0083486994017256
tp123
a(I3259
F0.008358981035831516
tp124
a(I3277
F0.008360557029937873
tp125
a(I3530
F0.008371586384418435
tp126
a(I3452
F0.008375858975483954
tp127
a(I3476
F0.008387621996153774
tp128
a(I149
F0.008389961737753204
tp129
a(I3515
F0.008393820671933457
tp130
a(I3319
F0.00839914777846507
tp131
a(I1398
F0.008400512008821913
tp132
a(I3483
F0.008401725886897339
tp133
a(I314
F0.00840210787009174
tp134
a(I3244
F0.00841023343704265
tp135
a(I1625
F0.008421706124489527
tp136
a(I3373
F0.008428950111475379
tp137
a(I3193
F0.008430253269634634
tp138
a(I3410
F0.00843424534707249
tp139
a(I3332
F0.008434598072944577
tp140
a(I2853
F0.008437590739728468
tp141
a(I3202
F0.008439791505182901
tp142
a(I1539
F0.008442234863266868
tp143
a(I3593
F0.008449909993501271
tp144
a(I287
F0.00845448602858481
tp145
a(I3232
F0.00848032442690621
tp146
a(I3615
F0.008483479095437368
tp147
a(I2311
F0.008486345726308117
tp148
a(I1612
F0.00848669237734256
tp149
a(I3562
F0.008486834563815566
tp150
a(I2691
F0.00848860180929513
tp151
a(I3539
F0.008489818325422218
tp152
a(I1555
F0.008490528656731096
tp153
a(I3624
F0.008499337498744599
tp154
a(I3570
F0.008499668433288733
tp155
a(I3266
F0.008501278025075481
tp156
a(I1564
F0.008514551411922857
tp157
a(I3405
F0.00852353705651132
tp158
a(I1558
F0.008536106825088966
tp159
a(I3323
F0.008550993584508554
tp160
a(I3479
F0.008568742176796592
tp161
a(I3242
F0.00857022768489856
tp162
a(I3178
F0.008595181066306488
tp163
a(I3545
F0.008597167467211227
tp164
a(I1551
F0.008600877102829906
tp165
a(I3599
F0.008603608235818917
tp166
a(I1601
F0.00860739477305939
tp167
a(I2076
F0.008610610271055136
tp168
a(I1078
F0.008622108596357496
tp169
a(I3154
F0.008625333757248
tp170
a(I3269
F0.008632365064662167
tp171
a(I3547
F0.00864868818321027
tp172
a(I1532
F0.00865640792155929
tp173
a(I3250
F0.008657170920595024
tp174
a(I3254
F0.008658561482191837
tp175
a(I3125
F0.00869460834853927
tp176
a(I3381
F0.008698428197767793
tp177
a(I3573
F0.008708755269262838
tp178
a(I3481
F0.00871582202382622
tp179
a(I1531
F0.008725706208819038
tp180
a(I3296
F0.008732064604382002
tp181
a(I1039
F0.008732239174564402
tp182
a(I1536
F0.0087424471026213
tp183
a(I3473
F0.008744266070892917
tp184
a(I3601
F0.008744720470626797
tp185
a(I3586
F0.008756251134446563
tp186
a(I3354
F0.008774209677843056
tp187
a(I2692
F0.008779498594268895
tp188
a(I3503
F0.008779533563243201
tp189
a(I3487
F0.008782559978732995
tp190
a(I3256
F0.008790118097545433
tp191
a(I3577
F0.008793697351865644
tp192
a(I3205
F0.008797424312997487
tp193
a(I3424
F0.00880037453458209
tp194
a(I3406
F0.008805029387618879
tp195
a(I3537
F0.008807663334617188
tp196
a(I3462
F0.008810625545208122
tp197
a(I1577
F0.008813877756400666
tp198
a(I3587
F0.008820629785361888
tp199
a(I1598
F0.008821970471775816
tp200
a(I3241
F0.008825839851306127
tp201
a(I3551
F0.008826325506787054
tp202
a(I3340
F0.008839242116670025
tp203
a(I152
F0.008848079838872676
tp204
a(I3426
F0.008848507405773276
tp205
a(I1557
F0.008852429769787704
tp206
a(I1583
F0.008858589142946202
tp207
a(I436
F0.008868243907717281
tp208
a(I3297
F0.008872524331378862
tp209
a(I3194
F0.008884910694566239
tp210
a(I3523
F0.008897051615901406
tp211
a(I3563
F0.008916336436717883
tp212
a(I3528
F0.008932750639056542
tp213
a(I3412
F0.008933381525143292
tp214
a(I3465
F0.008935958609219934
tp215
a(I3200
F0.008950103749721241
tp216
a(I3314
F0.008956671843285162
tp217
a(I3217
F0.00896310832887063
tp218
a(I3441
F0.008964586135684407
tp219
a(I3294
F0.008967216933604246
tp220
a(I3282
F0.008981745029972574
tp221
a(I251
F0.008987501697083445
tp222
a(I3445
F0.008993813110260337
tp223
a(I3516
F0.00899387553215547
tp224
a(I3605
F0.009000319976500777
tp225
a(I3612
F0.009035502966400877
tp226
a(I308
F0.009039568169078567
tp227
a(I3361
F0.009042653386322212
tp228
a(I3457
F0.009060257080129032
tp229
a(I3252
F0.009066173126669718
tp230
a(I3369
F0.009097454433809294
tp231
a(I3310
F0.009108423755026823
tp232
a(I3596
F0.009110044092589717
tp233
a(I603
F0.009113222506521523
tp234
a(I3414
F0.009123038561279717
tp235
a(I3610
F0.0091246756588023
tp236
a(I3321
F0.009127141227136648
tp237
a(I3188
F0.009128190349332396
tp238
a(I3524
F0.009136441828893269
tp239
a(I3623
F0.009137502231165417
tp240
a(I3284
F0.009152451085311741
tp241
a(I1562
F0.009156418535291604
tp242
a(I3377
F0.009156535118739659
tp243
a(I3315
F0.009160384807890902
tp244
a(I3444
F0.0091607053490858
tp245
a(I3318
F0.009164794062472196
tp246
a(I1430
F0.009165880402034341
tp247
a(I2807
F0.00918510218552394
tp248
a(I1617
F0.00920089460116491
tp249
a(I3591
F0.00920175451386418
tp250
a(I3417
F0.009204911630834764
tp251
a(I3230
F0.009212452900300774
tp252
a(I3557
F0.009217074949769144
tp253
a(I1622
F0.009247322840225527
tp254
a(I3576
F0.009258504010292438
tp255
a(I3581
F0.00927332416342094
tp256
a(I404
F0.009275102636911394
tp257
a(I3286
F0.009285261828389886
tp258
a(I3325
F0.00928628937068519
tp259
a(I3458
F0.009291372935049764
tp260
a(I3521
F0.009295249386410308
tp261
a(I1574
F0.00931010945067825
tp262
a(I3443
F0.009313598031981002
tp263
a(I3519
F0.009319437442171497
tp264
a(I3553
F0.009319850271475019
tp265
a(I3533
F0.009322772948094681
tp266
a(I3529
F0.009325211114142497
tp267
a(I1566
F0.009325673930148418
tp268
a(I3594
F0.009332586481621274
tp269
a(I3592
F0.009338606003264794
tp270
a(I3464
F0.009340787943635024
tp271
a(I3538
F0.009342008216394382
tp272
a(I3608
F0.009358716625918568
tp273
a(I3504
F0.009411432558125933
tp274
a(I2420
F0.009414439479398086
tp275
a(I1538
F0.00943199434195236
tp276
a(I3379
F0.009439671520600804
tp277
a(I3265
F0.009460558541359358
tp278
a(I802
F0.009466457229152316
tp279
a(I3220
F0.009472203595621202
tp280
a(I3447
F0.009472381413585702
tp281
a(I3401
F0.009475221722559782
tp282
a(I3494
F0.009483017285009271
tp283
a(I3560
F0.00948847337715385
tp284
a(I3544
F0.009488626159415514
tp285
a(I3246
F0.009491244150670444
tp286
a(I3229
F0.009501728359346333
tp287
a(I2850
F0.00952371761747615
tp288
a(I3213
F0.009531966892456485
tp289
a(I3472
F0.009546707314100086
tp290
a(I2371
F0.009553594094512733
tp291
a(I3240
F0.009583120764885236
tp292
a(I3582
F0.00958388721094902
tp293
a(I3466
F0.009586676170064121
tp294
a(I3311
F0.009602441721754654
tp295
a(I90
F0.00960443325908613
tp296
a(I1514
F0.009607710057393994
tp297
a(I3525
F0.009613354155986416
tp298
a(I3203
F0.009620844140857971
tp299
a(I3273
F0.009624582874663787
tp300
a(I3155
F0.009624598070737166
tp301
a(I1608
F0.009630425528324904
tp302
a(I3622
F0.009630938901159734
tp303
a(I3402
F0.009661911443095752
tp304
a(I3404
F0.0096656782899569
tp305
a(I1534
F0.009665894526856764
tp306
a(I3535
F0.009669389243245702
tp307
a(I3572
F0.009669572081224426
tp308
a(I3630
F0.009674223936533149
tp309
a(I2609
F0.009677486106179146
tp310
a(I3302
F0.009687027946000433
tp311
a(I3517
F0.009700361859620862
tp312
a(I1563
F0.009736476516159026
tp313
a(I3500
F0.009742093285029157
tp314
a(I3490
F0.009743466765818845
tp315
a(I3305
F0.009748606090302476
tp316
a(I3196
F0.00975307156370868
tp317
a(I3540
F0.009765943292713564
tp318
a(I3346
F0.009774120612158156
tp319
a(I3258
F0.009801932805228971
tp320
a(I3
F0.00980712811005481
tp321
a(I3542
F0.009824254643702124
tp322
a(I1548
F0.009826163560447547
tp323
a(I3307
F0.009843877595554024
tp324
a(I3556
F0.009844921034401403
tp325
a(I3598
F0.009853476789895321
tp326
a(I3415
F0.009865342516475301
tp327
a(I3378
F0.009868073408796852
tp328
a(I3541
F0.009888351447038079
tp329
a(I3326
F0.009890042735446348
tp330
a(I3489
F0.009896369812764623
tp331
a(I1549
F0.009898095914071462
tp332
a(I3522
F0.009898246867594277
tp333
a(I3223
F0.009899283896446991
tp334
a(I3589
F0.009902992849459597
tp335
a(I645
F0.00991129547831669
tp336
a(I3268
F0.009915204473760111
tp337
a(I1604
F0.009919832390220571
tp338
a(I3403
F0.009926551247404667
tp339
a(I3306
F0.009931441588240589
tp340
a(I20
F0.009945843958769796
tp341
a(I3271
F0.009957580347125171
tp342
a(I131
F0.009959940767070012
tp343
a(I1578
F0.009963717584881382
tp344
a(I3432
F0.009967499842044375
tp345
a(I2855
F0.00997634687358846
tp346
a(I3484
F0.009979398387702265
tp347
a(I3580
F0.009981549067423693
tp348
a(I3469
F0.009995331393732858
tp349
a(I1570
F0.00999680400487296
tp350
a(I3578
F0.010004574001439974
tp351
a(I3420
F0.010019329588484912
tp352
a(I3253
F0.010022711473845933
tp353
a(I3347
F0.010030413247821876
tp354
a(I169
F0.010031500132579436
tp355
a(I3374
F0.010045555468917772
tp356
a(I1611
F0.010048710163868699
tp357
a(I3368
F0.010111161073084386
tp358
a(I3343
F0.010113849728154524
tp359
a(I3463
F0.010155309715961023
tp360
a(I3204
F0.010157626986778164
tp361
a(I1896
F0.010157688764279403
tp362
a(I3225
F0.010179831515905574
tp363
a(I3498
F0.010180338082242503
tp364
a(I3195
F0.010199792843987691
tp365
a(I3330
F0.010200610525596102
tp366
a(I3534
F0.01023125940963635
tp367
a(I349
F0.010254513363117463
tp368
a(I1553
F0.010256568537495762
tp369
a(I3197
F0.010270450573079345
tp370
a(I1801
F0.0102773788859445
tp371
a(I3390
F0.01027971399298854
tp372
a(I3300
F0.010280522017154875
tp373
a(I159
F0.010298526562896346
tp374
a(I2848
F0.010302240820902357
tp375
a(I3338
F0.01030519978428421
tp376
a(I3308
F0.010308284740522889
tp377
a(I3198
F0.010315536300018429
tp378
a(I3559
F0.010323782920761715
tp379
a(I3218
F0.010333966726335343
tp380
a(I3389
F0.010345339965309728
tp381
a(I3235
F0.010354103041475169
tp382
a(I3552
F0.010374742772630136
tp383
a(I3453
F0.010383139235358146
tp384
a(I810
F0.010386916616136863
tp385
a(I35
F0.010391259615911535
tp386
a(I3616
F0.010415774321681077
tp387
a(I3488
F0.010423020745530377
tp388
a(I3518
F0.010449967187494925
tp389
a(I3290
F0.010470919520156012
tp390
a(I24
F0.010489433475217809
tp391
a(I3468
F0.01049002710135705
tp392
a(I3293
F0.010505599715214276
tp393
a(I3491
F0.01050801407919527
tp394
a(I130
F0.010508930408531484
tp395
a(I647
F0.010512063055506742
tp396
a(I3492
F0.010513156622000528
tp397
a(I2982
F0.010521261147916983
tp398
a(I259
F0.010536319068056832
tp399
a(I445
F0.010573618832780348
tp400
a(I3558
F0.010574691448134927
tp401
a(I77
F0.010580309419537734
tp402
a(I3451
F0.010605939945404277
tp403
a(I276
F0.010608702113729374
tp404
a(I3633
F0.010609443405770566
tp405
a(I3207
F0.010615694917010433
tp406
a(I25
F0.010627188340576616
tp407
a(I3272
F0.010639185451939216
tp408
a(I3626
F0.01064107430270462
tp409
a(I3423
F0.010648577832213525
tp410
a(I3391
F0.010674672967443094
tp411
a(I3588
F0.0106783915737425
tp412
a(I148
F0.010678702191734476
tp413
a(I268
F0.010683261547285512
tp414
a(I3536
F0.010685777271141192
tp415
a(I1537
F0.010698970841172634
tp416
a(I1738
F0.010708815153946958
tp417
a(I224
F0.010710840450627713
tp418
a(I1581
F0.010711164372161405
tp419
a(I3602
F0.010718705538306898
tp420
a(I3627
F0.010722420844665317
tp421
a(I671
F0.010730067980254143
tp422
a(I99
F0.010730159881174801
tp423
a(I299
F0.010758446002714238
tp424
a(I3236
F0.010789427442842371
tp425
a(I168
F0.01082016367859054
tp426
a(I13
F0.010825195377340835
tp427
a(I32
F0.010841871170466004
tp428
a(I3333
F0.010851247796303079
tp429
a(I1569
F0.01085823526362599
tp430
a(I3584
F0.010881016336687277
tp431
a(I2851
F0.010887753416895716
tp432
a(I3526
F0.010889238251748352
tp433
a(I3585
F0.010908099683846458
tp434
a(I3366
F0.01093371825792704
tp435
a(I211
F0.010943781598592828
tp436
a(I407
F0.010984803137836785
tp437
a(I3227
F0.010986306734275182
tp438
a(I621
F0.010990475379694338
tp439
a(I3603
F0.011005229192738763
tp440
a(I3597
F0.011011669792288337
tp441
a(I526
F0.011055241798295744
tp442
a(I3224
F0.011072857621582733
tp443
a(I47
F0.011088174096697817
tp444
a(I3575
F0.011091239152002315
tp445
a(I3493
F0.011134344964808059
tp446
a(I3419
F0.011135469677596927
tp447
a(I3364
F0.011150860056520513
tp448
a(I329
F0.011151798235412184
tp449
a(I755
F0.011154841924969341
tp450
a(I3219
F0.011172638525840285
tp451
a(I3509
F0.011185239694718437
tp452
a(I3433
F0.011200847208904277
tp453
a(I3604
F0.011240534368667945
tp454
a(I2421
F0.011280443265380953
tp455
a(I3579
F0.011295236800677835
tp456
a(I266
F0.011305595182853593
tp457
a(I3548
F0.011319495387904657
tp458
a(I244
F0.011322686550864693
tp459
a(I3262
F0.011358412026348156
tp460
a(I1550
F0.01138053060854628
tp461
a(I57
F0.011395011303941178
tp462
a(I124
F0.011407156438623231
tp463
a(I3590
F0.01140935306780316
tp464
a(I3275
F0.011410089601972522
tp465
a(I586
F0.011425268618444973
tp466
a(I2310
F0.011431262839761881
tp467
a(I31
F0.011456359864336244
tp468
a(I1573
F0.011457827780229496
tp469
a(I39
F0.011464889588751423
tp470
a(I3554
F0.011480612988075982
tp471
a(I1423
F0.011504588563511414
tp472
a(I1424
F0.011510697733310708
tp473
a(I3550
F0.011533750703149407
tp474
a(I2858
F0.011538071531220107
tp475
a(I1530
F0.011568134543906563
tp476
a(I1560
F0.01157862353687608
tp477
a(I1533
F0.011594974059637744
tp478
a(I3283
F0.011611901803114263
tp479
a(I396
F0.011612138841195219
tp480
a(I2844
F0.011617085683489358
tp481
a(I3408
F0.01162144446330544
tp482
a(I3375
F0.011639168208734212
tp483
a(I104
F0.01164214139474187
tp484
a(I1023
F0.011651851570310774
tp485
a(I2163
F0.011673942160643993
tp486
a(I8
F0.01168630062185602
tp487
a(I3320
F0.011694718812719542
tp488
a(I632
F0.011713995612514499
tp489
a(I3350
F0.011714267680920482
tp490
a(I3606
F0.011716096941878636
tp491
a(I710
F0.011725357992390396
tp492
a(I1541
F0.011735141072721476
tp493
a(I3485
F0.011766899513442527
tp494
a(I426
F0.01177610007784916
tp495
a(I995
F0.011803236366832313
tp496
a(I3425
F0.011827893968942932
tp497
a(I393
F0.01184702672823247
tp498
a(I360
F0.011849518005879207
tp499
a(I387
F0.011859129281433406
tp500
a(I235
F0.011874015496669124
tp501
a(I116
F0.011882065826138887
tp502
a(I3461
F0.011907740142495168
tp503
a(I3239
F0.011908967368212961
tp504
a(I406
F0.011922458269540321
tp505
a(I3276
F0.011936279335934484
tp506
a(I3555
F0.011988519406048415
tp507
a(I3234
F0.011990744466128689
tp508
a(I3531
F0.012016760999026375
tp509
a(I28
F0.012020986696034795
tp510
a(I977
F0.012038721216610272
tp511
a(I3206
F0.01204258256628659
tp512
a(I21
F0.012069266812499244
tp513
a(I3267
F0.012070161925395841
tp514
a(I463
F0.012079249950840656
tp515
a(I3214
F0.0121462889375328
tp516
a(I3387
F0.012154357465700994
tp517
a(I3313
F0.012159665311247137
tp518
a(I69
F0.012164208490555049
tp519
a(I227
F0.012189480703540687
tp520
a(I3568
F0.012189808394494468
tp521
a(I225
F0.012197727701107119
tp522
a(I18
F0.012204583516208366
tp523
a(I111
F0.012207741094558888
tp524
a(I1567
F0.012218833296145546
tp525
a(I3331
F0.01221935602541309
tp526
a(I1427
F0.012219445441022023
tp527
a(I1580
F0.012219476787379323
tp528
a(I150
F0.012220444287525707
tp529
a(I2537
F0.01223229644721804
tp530
a(I1621
F0.01223913068639654
tp531
a(I210
F0.012285780191803819
tp532
a(I3392
F0.012303380732298986
tp533
a(I3209
F0.01230701639974758
tp534
a(I2980
F0.01230802170814715
tp535
a(I3351
F0.012309304452489019
tp536
a(I3160
F0.012312623764491907
tp537
a(I3450
F0.012313992612545134
tp538
a(I134
F0.012331396616276627
tp539
a(I3127
F0.012351082935164263
tp540
a(I3363
F0.012354183670697223
tp541
a(I702
F0.012375491066810254
tp542
a(I440
F0.012376745189308288
tp543
a(I3316
F0.012415037964790975
tp544
a(I1542
F0.012461923940576655
tp545
a(I809
F0.012462053155220736
tp546
a(I3567
F0.012481537662329055
tp547
a(I3400
F0.012487106922107765
tp548
a(I3508
F0.012489716729811624
tp549
a(I1610
F0.012498831471214597
tp550
a(I157
F0.012509363790525611
tp551
a(I3312
F0.01251879056337291
tp552
a(I3327
F0.01252593992182398
tp553
a(I400
F0.012533570484182936
tp554
a(I3506
F0.012536203978371772
tp555
a(I492
F0.0125528422120194
tp556
a(I3329
F0.01255467072727844
tp557
a(I97
F0.012563859242771843
tp558
a(I3436
F0.012572790863907645
tp559
a(I2846
F0.012581934916620989
tp560
a(I95
F0.012584724640684306
tp561
a(I206
F0.01258539731565425
tp562
a(I41
F0.012593331222933019
tp563
a(I3456
F0.012618150852950075
tp564
a(I1559
F0.012632080842582
tp565
a(I200
F0.01264206421513935
tp566
a(I3619
F0.012680972110711024
tp567
a(I590
F0.012681631190762332
tp568
a(I123
F0.012683023358837852
tp569
a(I3511
F0.0126971913124658
tp570
a(I3505
F0.012706556623768394
tp571
a(I239
F0.012715339009907586
tp572
a(I1597
F0.012717848996253963
tp573
a(I1556
F0.012737633050872691
tp574
a(I630
F0.012739145123243055
tp575
a(I277
F0.012751020393692544
tp576
a(I43
F0.01276372949506259
tp577
a(I803
F0.012784481795081525
tp578
a(I3388
F0.012806526785959206
tp579
a(I1565
F0.012816901210928908
tp580
a(I2162
F0.01282404276301424
tp581
a(I29
F0.01282709315879783
tp582
a(I1189
F0.01285727718062219
tp583
a(I345
F0.012893612345448249
tp584
a(I709
F0.012895316010908466
tp585
a(I1540
F0.012918149630626305
tp586
a(I56
F0.01292173826411805
tp587
a(I3342
F0.012929529363025622
tp588
a(I3362
F0.012932151191053206
tp589
a(I1509
F0.012938629295602452
tp590
a(I3496
F0.01298958557190665
tp591
a(I3482
F0.012997016050369774
tp592
a(I401
F0.013001650356831734
tp593
a(I254
F0.01301453185833481
tp594
a(I584
F0.013029807621272305
tp595
a(I54
F0.013031623934761576
tp596
a(I467
F0.013032739960408489
tp597
a(I456
F0.013038018215875342
tp598
a(I402
F0.013059189371669453
tp599
a(I5
F0.013065786055834899
tp600
a(I214
F0.013087069278552651
tp601
a(I3358
F0.013090010353866867
tp602
a(I806
F0.013143051809074591
tp603
a(I151
F0.013144410928494788
tp604
a(I0
F0.013146712507593753
tp605
a(I119
F0.013149955413798944
tp606
a(I128
F0.013155651271995335
tp607
a(I1614
F0.013162942853626423
tp608
a(I3344
F0.01317386480202115
tp609
a(I3397
F0.013181232602401591
tp610
a(I3280
F0.01318191423109621
tp611
a(I410
F0.013182215727955868
tp612
a(I3221
F0.013193088385652873
tp613
a(I33
F0.013194775741839497
tp614
a(I17
F0.013215343034002121
tp615
a(I3376
F0.013224099962547036
tp616
a(I643
F0.013257816434566142
tp617
a(I3399
F0.013257972174407155
tp618
a(I798
F0.01326886801273428
tp619
a(I245
F0.013298776966937874
tp620
a(I92
F0.013309358142395736
tp621
a(I3353
F0.013329118308839955
tp622
a(I3574
F0.013346373056472476
tp623
a(I318
F0.013379396440929116
tp624
a(I655
F0.013380537879837116
tp625
a(I478
F0.013405627709181096
tp626
a(I3416
F0.013410682692807423
tp627
a(I144
F0.013411167877379568
tp628
a(I3210
F0.013483590793032721
tp629
a(I3396
F0.013500324865523296
tp630
a(I179
F0.013508469104938867
tp631
a(I228
F0.013515708128553633
tp632
a(I73
F0.013545721674555353
tp633
a(I575
F0.013547746001259301
tp634
a(I1615
F0.013550483337219331
tp635
a(I353
F0.013621200728882829
tp636
a(I230
F0.013635871288148036
tp637
a(I3411
F0.013650116027410057
tp638
a(I177
F0.01369451343866111
tp639
a(I121
F0.013707288241997802
tp640
a(I686
F0.013709101120785496
tp641
a(I263
F0.01371322994284685
tp642
a(I335
F0.013733176850861327
tp643
a(I120
F0.013750679479742494
tp644
a(I3429
F0.013760060658694763
tp645
a(I12
F0.013776015883796932
tp646
a(I294
F0.013777185081579105
tp647
a(I40
F0.013782956713028266
tp648
a(I431
F0.01379153450774257
tp649
a(I22
F0.013801143718658634
tp650
a(I207
F0.013809350925770871
tp651
a(I354
F0.013860574472357418
tp652
a(I216
F0.013894456312049884
tp653
a(I127
F0.013898582517657642
tp654
a(I125
F0.013906776897567962
tp655
a(I3336
F0.013914472868400344
tp656
a(I598
F0.013915207434223562
tp657
a(I576
F0.013935523544009917
tp658
a(I1613
F0.013954282904205566
tp659
a(I46
F0.013975899765881603
tp660
a(I3434
F0.01397733772130121
tp661
a(I295
F0.013983615347127918
tp662
a(I946
F0.014003371207236454
tp663
a(I453
F0.014006269845328665
tp664
a(I86
F0.014025586823004242
tp665
a(I34
F0.014034012204712829
tp666
a(I3384
F0.014043458831859682
tp667
a(I3339
F0.014085480327688787
tp668
a(I3501
F0.014127481710857141
tp669
a(I265
F0.014131097933985006
tp670
a(I386
F0.014136453231480021
tp671
a(I3571
F0.014139876235999816
tp672
a(I712
F0.014145242555424254
tp673
a(I298
F0.014163272502402582
tp674
a(I466
F0.014176022757429659
tp675
a(I3609
F0.01418398911028673
tp676
a(I510
F0.01419444006654014
tp677
a(I414
F0.014203667122479932
tp678
a(I222
F0.01421311476283288
tp679
a(I274
F0.014214117240424021
tp680
a(I1365
F0.014219500880775329
tp681
a(I458
F0.014224891101044733
tp682
a(I562
F0.014237722750777244
tp683
a(I968
F0.014239137275496269
tp684
a(I248
F0.014240873140462287
tp685
a(I16
F0.014246224493921093
tp686
a(I49
F0.014261325024480012
tp687
a(I511
F0.014266627017405305
tp688
a(I217
F0.014300085044480012
tp689
a(I348
F0.014332734115618742
tp690
a(I1561
F0.01433454262289721
tp691
a(I490
F0.014336076309553877
tp692
a(I10
F0.01433917282476292
tp693
a(I1
F0.014366432247602527
tp694
a(I1236
F0.014381504761643406
tp695
a(I7
F0.014383000331373243
tp696
a(I965
F0.01438471289121549
tp697
a(I30
F0.014394785648176171
tp698
a(I37
F0.014410947544020121
tp699
a(I181
F0.014415971400794649
tp700
a(I470
F0.01442291701257169
tp701
a(I1603
F0.014431547455333434
tp702
a(I55
F0.014432834240845769
tp703
a(I185
F0.01446120874986935
tp704
a(I3348
F0.014485540415787533
tp705
a(I763
F0.014486764131154477
tp706
a(I3421
F0.014495382797502636
tp707
a(I2854
F0.01451308196549088
tp708
a(I654
F0.014524849083324735
tp709
a(I371
F0.014539875914907947
tp710
a(I107
F0.014560815103090353
tp711
a(I1623
F0.014570517336799638
tp712
a(I110
F0.014585410589050623
tp713
a(I280
F0.01460025034549589
tp714
a(I628
F0.014640841324005888
tp715
a(I3546
F0.014650925081954182
tp716
a(I3395
F0.014653157949343543
tp717
a(I3304
F0.014662673695863701
tp718
a(I1599
F0.014684643105332825
tp719
a(I59
F0.014706301890442907
tp720
a(I132
F0.014733054167488224
tp721
a(I2150
F0.014745954630989657
tp722
a(I516
F0.01477220350849766
tp723
a(I2
F0.014781305476349768
tp724
a(I3477
F0.014810663621776157
tp725
a(I537
F0.014822636598794198
tp726
a(I198
F0.014822772577426889
tp727
a(I518
F0.014884320765308552
tp728
a(I558
F0.014896742612723776
tp729
a(I202
F0.014939181704967327
tp730
a(I653
F0.014947410500751206
tp731
a(I3367
F0.014948934733145276
tp732
a(I3583
F0.014971233609758178
tp733
a(I3349
F0.014985681013609907
tp734
a(I369
F0.014994974309353945
tp735
a(I3287
F0.014996451927685036
tp736
a(I344
F0.0150263663490832
tp737
a(I45
F0.015026695669876704
tp738
a(I441
F0.015028805083958966
tp739
a(I115
F0.0150473287084308
tp740
a(I1602
F0.01506113912705228
tp741
a(I3334
F0.015063709617205821
tp742
a(I535
F0.015063734422845596
tp743
a(I275
F0.015068879064106698
tp744
a(I443
F0.015089132849151017
tp745
a(I1616
F0.015098414983960166
tp746
a(I3335
F0.015104194878496794
tp747
a(I385
F0.015159742125358628
tp748
a(I240
F0.015168979940305256
tp749
a(I513
F0.01520544141808185
tp750
a(I425
F0.015252559621778461
tp751
a(I162
F0.01525899325853175
tp752
a(I477
F0.015287194237322211
tp753
a(I553
F0.015319573198329215
tp754
a(I220
F0.015326032812973144
tp755
a(I786
F0.015339582797298806
tp756
a(I388
F0.015350173063010888
tp757
a(I367
F0.015350176437462722
tp758
a(I807
F0.015391456544246484
tp759
a(I270
F0.015398385181915678
tp760
a(I3365
F0.015416534583055736
tp761
a(I242
F0.0154275271635076
tp762
a(I3128
F0.015435902081361681
tp763
a(I205
F0.015456925072215744
tp764
a(I213
F0.01546212552812591
tp765
a(I178
F0.015463478109496175
tp766
a(I708
F0.015466837665419106
tp767
a(I554
F0.015479258971895988
tp768
a(I591
F0.015483753226457514
tp769
a(I430
F0.015508568068225242
tp770
a(I758
F0.015518510615808867
tp771
a(I315
F0.015547208111182945
tp772
a(I3068
F0.015558997465049813
tp773
a(I622
F0.015583760958847571
tp774
a(I113
F0.015590836553379657
tp775
a(I342
F0.015594637126532992
tp776
a(I201
F0.015594670961575064
tp777
a(I607
F0.015605357025727237
tp778
a(I1546
F0.015628312146657268
tp779
a(I776
F0.01563450171493809
tp780
a(I53
F0.01565136023728732
tp781
a(I572
F0.015652131816644075
tp782
a(I560
F0.015680492955352173
tp783
a(I246
F0.0156873832708737
tp784
a(I3226
F0.015710452296614285
tp785
a(I75
F0.0157425790908969
tp786
a(I3126
F0.01574847692131464
tp787
a(I3337
F0.01574883153629569
tp788
a(I754
F0.015781017990501838
tp789
a(I145
F0.015812517672422186
tp790
a(I805
F0.01583351862966335
tp791
a(I241
F0.015834303582636315
tp792
a(I292
F0.01584594179645195
tp793
a(I193
F0.015848502146044205
tp794
a(I42
F0.015860889203118542
tp795
a(I339
F0.01586114652682152
tp796
a(I3237
F0.015863229886555304
tp797
a(I3478
F0.015877950161386222
tp798
a(I694
F0.01587897414077338
tp799
a(I3629
F0.015885952019452178
tp800
a(I27
F0.015886794813514148
tp801
a(I377
F0.015925701022988265
tp802
a(I427
F0.015935675051331536
tp803
a(I544
F0.015946768591818303
tp804
a(I129
F0.015976848674239798
tp805
a(I3611
F0.015997650943146657
tp806
a(I156
F0.016007819225522094
tp807
a(I6
F0.016016486156699785
tp808
a(I901
F0.016017439595392032
tp809
a(I383
F0.01602045751632049
tp810
a(I557
F0.01602137631315938
tp811
a(I3413
F0.01602364198468943
tp812
a(I140
F0.01603141507270369
tp813
a(I669
F0.01610497252939509
tp814
a(I226
F0.016157312185098447
tp815
a(I142
F0.016194857921850252
tp816
a(I475
F0.016198351193082373
tp817
a(I592
F0.016201211072675553
tp818
a(I573
F0.01620711248930477
tp819
a(I652
F0.01620775172459272
tp820
a(I15
F0.01624446153260968
tp821
a(I93
F0.01627421234762344
tp822
a(I64
F0.016281637287578643
tp823
a(I2246
F0.01628621490937123
tp824
a(I411
F0.016314167025335374
tp825
a(I423
F0.01631502844123817
tp826
a(I199
F0.016380976541076023
tp827
a(I3359
F0.01638126672395116
tp828
a(I637
F0.016412857774165318
tp829
a(I2918
F0.0164389848597616
tp830
a(I320
F0.016439817733184512
tp831
a(I269
F0.016441890988470702
tp832
a(I604
F0.016443704553854816
tp833
a(I469
F0.016444281283141456
tp834
a(I288
F0.016448757492092923
tp835
a(I368
F0.01645870127849715
tp836
a(I52
F0.016464470984796354
tp837
a(I191
F0.016482092591858347
tp838
a(I2856
F0.016482525383950324
tp839
a(I799
F0.016494366024057502
tp840
a(I3470
F0.01650726505775784
tp841
a(I649
F0.01653184515750039
tp842
a(I36
F0.01653727653735913
tp843
a(I2423
F0.016544031128902084
tp844
a(I176
F0.016547072047502803
tp845
a(I117
F0.016571056154747747
tp846
a(I321
F0.01659816009457565
tp847
a(I192
F0.016620379188389874
tp848
a(I2694
F0.01664740825957807
tp849
a(I398
F0.016650476734854588
tp850
a(I3512
F0.016695850451814636
tp851
a(I183
F0.01672943138371232
tp852
a(I3595
F0.016784454565227678
tp853
a(I3360
F0.01678783545512261
tp854
a(I636
F0.01681369883959271
tp855
a(I278
F0.016816348344980497
tp856
a(I63
F0.01682742311464866
tp857
a(I568
F0.016840859132343882
tp858
a(I338
F0.016851022962613166
tp859
a(I546
F0.016851254444444366
tp860
a(I412
F0.016859631694469173
tp861
a(I209
F0.01686285489575184
tp862
a(I735
F0.016865136540358133
tp863
a(I3382
F0.01690203294362148
tp864
a(I502
F0.016952723510996554
tp865
a(I1535
F0.016954573697265947
tp866
a(I89
F0.016971591805251984
tp867
a(I351
F0.01698161477851547
tp868
a(I2690
F0.016990435318440633
tp869
a(I3422
F0.017013263278737888
tp870
a(I495
F0.017020366627531865
tp871
a(I797
F0.01702993724333114
tp872
a(I126
F0.01705157624222811
tp873
a(I106
F0.017056368999694985
tp874
a(I290
F0.017060798753526573
tp875
a(I62
F0.017090635320748625
tp876
a(I533
F0.01710741141812652
tp877
a(I103
F0.017115768477460748
tp878
a(I967
F0.017147980902184914
tp879
a(I3394
F0.017234943688240124
tp880
a(I70
F0.017241420000671887
tp881
a(I517
F0.017301938291351553
tp882
a(I350
F0.01730265629031046
tp883
a(I519
F0.017318170215543334
tp884
a(I435
F0.01732143370163912
tp885
a(I262
F0.017343815966812087
tp886
a(I662
F0.017366165330730175
tp887
a(I801
F0.017367023807125754
tp888
a(I3322
F0.01739249371882733
tp889
a(I638
F0.017450037306303023
tp890
a(I514
F0.01745848247145612
tp891
a(I23
F0.017470847781158195
tp892
a(I67
F0.017508155547865525
tp893
a(I273
F0.01751002566875784
tp894
a(I186
F0.017538958290288578
tp895
a(I765
F0.017560545967331503
tp896
a(I3356
F0.017575816659146436
tp897
a(I395
F0.01758548925870499
tp898
a(I182
F0.01759086859439085
tp899
a(I381
F0.017597390365864683
tp900
a(I520
F0.017614778836050962
tp901
a(I639
F0.01761672725601377
tp902
a(I446
F0.017703453239480235
tp903
a(I261
F0.017716692044198384
tp904
a(I563
F0.017724095382930852
tp905
a(I3233
F0.017736586471943597
tp906
a(I933
F0.01773666659174374
tp907
a(I566
F0.017743861927428075
tp908
a(I547
F0.017750382775894337
tp909
a(I380
F0.01775464785855237
tp910
a(I695
F0.01775496519588764
tp911
a(I231
F0.0177807927677344
tp912
a(I81
F0.017785072167215674
tp913
a(I1057
F0.01778744975008517
tp914
a(I94
F0.017788224960856917
tp915
a(I328
F0.017805110868343747
tp916
a(I322
F0.017894618436062985
tp917
a(I378
F0.017944317702495473
tp918
a(I1606
F0.01795674423822756
tp919
a(I417
F0.01796158899821169
tp920
a(I3355
F0.01796567950395698
tp921
a(I253
F0.01799143503428362
tp922
a(I3435
F0.018006873854662486
tp923
a(I1788
F0.018021018910245226
tp924
a(I285
F0.0180332669505339
tp925
a(I593
F0.01805452615782235
tp926
a(I501
F0.01807650105139818
tp927
a(I68
F0.018100358178014177
tp928
a(I578
F0.018103941156257637
tp929
a(I527
F0.018104398075225812
tp930
a(I512
F0.018110543961944246
tp931
a(I2860
F0.01811183459768423
tp932
a(I471
F0.0181356640119606
tp933
a(I286
F0.018152172499724634
tp934
a(I760
F0.01816298093427523
tp935
a(I100
F0.018196180944102868
tp936
a(I822
F0.018196845315324305
tp937
a(I3600
F0.01828722232716447
tp938
a(I175
F0.01828958358352163
tp939
a(I114
F0.018305090950192702
tp940
a(I143
F0.018313791296941582
tp941
a(I459
F0.01834918776046329
tp942
a(I165
F0.018366249836082312
tp943
a(I600
F0.01837890220962071
tp944
a(I529
F0.01838213724006075
tp945
a(I3371
F0.0184213416019434
tp946
a(I640
F0.018427246412138377
tp947
a(I58
F0.018435196053875412
tp948
a(I19
F0.018462208604266173
tp949
a(I523
F0.01848017141938132
tp950
a(I434
F0.018483338036197002
tp951
a(I238
F0.0184989147422309
tp952
a(I688
F0.01852792953239016
tp953
a(I631
F0.01853400801016713
tp954
a(I293
F0.01855789203526014
tp955
a(I74
F0.018667789381489743
tp956
a(I3614
F0.018704733949690206
tp957
a(I711
F0.018733969448161455
tp958
a(I679
F0.01875632860289744
tp959
a(I44
F0.018768468123882637
tp960
a(I545
F0.018786895053666226
tp961
a(I135
F0.01879428609067761
tp962
a(I493
F0.018822538201873948
tp963
a(I3569
F0.018867352170748208
tp964
a(I2849
F0.018927517742779544
tp965
a(I451
F0.018928252161797318
tp966
a(I620
F0.018932261365936124
tp967
a(I3549
F0.019038243842258214
tp968
a(I139
F0.01904673586711939
tp969
a(I1314
F0.019047379471544043
tp970
a(I3427
F0.019108600372592367
tp971
a(I204
F0.019117803734915992
tp972
a(I472
F0.019126106022497695
tp973
a(I3437
F0.019136916384810312
tp974
a(I616
F0.01916148299055268
tp975
a(I532
F0.019166672028669354
tp976
a(I1662
F0.01917556187655468
tp977
a(I112
F0.019234899580680684
tp978
a(I221
F0.019267748394337095
tp979
a(I843
F0.019272788414409624
tp980
a(I158
F0.01928931776438725
tp981
a(I3383
F0.019301061373941664
tp982
a(I479
F0.019326387025247083
tp983
a(I379
F0.019329171211292618
tp984
a(I160
F0.01932970046332719
tp985
a(I1420
F0.019372961219894486
tp986
a(I2852
F0.019382331912056003
tp987
a(I3649
F0.019406055099405496
tp988
a(I1571
F0.019445320286728084
tp989
a(I105
F0.019461532601106005
tp990
a(I740
F0.019484989420350124
tp991
a(I678
F0.01949489618581636
tp992
a(I161
F0.019533221923684275
tp993
a(I795
F0.01957201389148179
tp994
a(I382
F0.019580671525261186
tp995
a(I452
F0.01960204225964134
tp996
a(I3641
F0.01964708492845415
tp997
a(I752
F0.019691299431262462
tp998
a(I219
F0.01970076116287197
tp999
a(I311
F0.019735593297956284
tp1000
a(I642
F0.01973772060850338
tp1001
a(I405
F0.01975875565942873
tp1002
a(I370
F0.01984473292577788
tp1003
a(I746
F0.019845057452499183
tp1004
a(I297
F0.019853320157151345
tp1005
a(I506
F0.01985996594802237
tp1006
a(I660
F0.019874905809613222
tp1007
a(I429
F0.019875424037453168
tp1008
a(I3628
F0.01997045793324675
tp1009
a(I973
F0.020032024855373972
tp1010
a(I424
F0.020069645284702967
tp1011
a(I1852
F0.020069877328674823
tp1012
a(I623
F0.020168805558259555
tp1013
a(I195
F0.020170965666587805
tp1014
a(I808
F0.020191772489142758
tp1015
a(I78
F0.020212285126273266
tp1016
a(I229
F0.020237711328305617
tp1017
a(I3565
F0.02030557813859636
tp1018
a(I218
F0.02032408185087577
tp1019
a(I1347
F0.020345084297259283
tp1020
a(I779
F0.020358928812477098
tp1021
a(I336
F0.020369020363916447
tp1022
a(I180
F0.02042328396580338
tp1023
a(I778
F0.020432170031709274
tp1024
a(I163
F0.020465646835377986
tp1025
a(I482
F0.02046722512517605
tp1026
a(I928
F0.020497685492698446
tp1027
a(I389
F0.020502672519264128
tp1028
a(I699
F0.02056568471977091
tp1029
a(I373
F0.020579105072398764
tp1030
a(I734
F0.020601938995998516
tp1031
a(I601
F0.020609094434539475
tp1032
a(I530
F0.020621642828802415
tp1033
a(I724
F0.020657621421309474
tp1034
a(I337
F0.020681356544535942
tp1035
a(I570
F0.020682189680437685
tp1036
a(I606
F0.020713066917442166
tp1037
a(I243
F0.02071507111507611
tp1038
a(I596
F0.02071787964058895
tp1039
a(I648
F0.020734807871033892
tp1040
a(I346
F0.020786447617720093
tp1041
a(I188
F0.020791170895327175
tp1042
a(I391
F0.02086247608707491
tp1043
a(I774
F0.020863558805915432
tp1044
a(I307
F0.020931562559793084
tp1045
a(I839
F0.02093290524712922
tp1046
a(I14
F0.020947604698429812
tp1047
a(I141
F0.02096448844677288
tp1048
a(I785
F0.021008201663112153
tp1049
a(I1022
F0.02101681036040054
tp1050
a(I1065
F0.021019762116734817
tp1051
a(I521
F0.021034966713441117
tp1052
a(I3341
F0.021052204584888896
tp1053
a(I1279
F0.021103137054563514
tp1054
a(I256
F0.02116083189667966
tp1055
a(I582
F0.02126812548016392
tp1056
a(I203
F0.02129573667639395
tp1057
a(I3030
F0.02130919163814238
tp1058
a(I215
F0.0213093223413905
tp1059
a(I929
F0.0213214459321347
tp1060
a(I1371
F0.0213514714159402
tp1061
a(I264
F0.021355789815372388
tp1062
a(I347
F0.021360759947167268
tp1063
a(I1655
F0.021455141536000238
tp1064
a(I2100
F0.021490514520207216
tp1065
a(I619
F0.021490887071978257
tp1066
a(I376
F0.021521324057690895
tp1067
a(I845
F0.02153080385919231
tp1068
a(I852
F0.021550156710462124
tp1069
a(I184
F0.021668278590495686
tp1070
a(I656
F0.021709052268457804
tp1071
a(I793
F0.02173636224247369
tp1072
a(I1856
F0.021769660715866956
tp1073
a(I902
F0.021789669401132115
tp1074
a(I1198
F0.02184215185362484
tp1075
a(I3613
F0.021865611529701044
tp1076
a(I903
F0.02186627455588362
tp1077
a(I190
F0.02191174992318336
tp1078
a(I1159
F0.021942071803156157
tp1079
a(I565
F0.02194465380209941
tp1080
a(I559
F0.021984914683708903
tp1081
a(I1194
F0.0219902278029995
tp1082
a(I1672
F0.02199873034167145
tp1083
a(I83
F0.02202027277506046
tp1084
a(I741
F0.022022717832267565
tp1085
a(I284
F0.02203685855796762
tp1086
a(I87
F0.022081509297014138
tp1087
a(I399
F0.022112183678998563
tp1088
a(I147
F0.02211276786806141
tp1089
a(I726
F0.022177183205697042
tp1090
a(I1167
F0.02217774909555207
tp1091
a(I634
F0.022190014704347085
tp1092
a(I609
F0.02219032236722826
tp1093
a(I3409
F0.02220586320701172
tp1094
a(I154
F0.02228298436294071
tp1095
a(I602
F0.022309500646499354
tp1096
a(I1963
F0.02232972114757112
tp1097
a(I505
F0.02234483725565795
tp1098
a(I1106
F0.022372692966638786
tp1099
a(I237
F0.022452726680910327
tp1100
a(I409
F0.022453443576119142
tp1101
a(I2226
F0.022470560498914747
tp1102
a(I91
F0.022474134553733573
tp1103
a(I1426
F0.022510252709677735
tp1104
a(I696
F0.0225210064560225
tp1105
a(I1677
F0.022544236916006002
tp1106
a(I153
F0.02254694273530491
tp1107
a(I1498
F0.022549294131265992
tp1108
a(I419
F0.022569889173115566
tp1109
a(I2375
F0.022577400173930125
tp1110
a(I543
F0.022584672304987622
tp1111
a(I79
F0.022603727050540576
tp1112
a(I1256
F0.02263073479896849
tp1113
a(I540
F0.022633625275377107
tp1114
a(I1927
F0.022659878600281364
tp1115
a(I101
F0.022662642122553315
tp1116
a(I355
F0.022681208291828077
tp1117
a(I223
F0.022705956296104092
tp1118
a(I1439
F0.02270635582785152
tp1119
a(I372
F0.02270992902385674
tp1120
a(I84
F0.022754919916885632
tp1121
a(I1587
F0.02283051739107015
tp1122
a(I1480
F0.02284565895409561
tp1123
a(I4
F0.02286209212349681
tp1124
a(I1036
F0.022895868042432405
tp1125
a(I323
F0.022957977205576127
tp1126
a(I444
F0.02295972496791426
tp1127
a(I664
F0.023106079006242952
tp1128
a(I646
F0.02323540018207628
tp1129
a(I1308
F0.023242700322545648
tp1130
a(I625
F0.023276969024227854
tp1131
a(I2085
F0.023318480105742178
tp1132
a(I1192
F0.023370107004511267
tp1133
a(I1048
F0.02338420484733441
tp1134
a(I2260
F0.02341161151101749
tp1135
a(I759
F0.023414443696914224
tp1136
a(I476
F0.023417642929089818
tp1137
a(I167
F0.023420792980280325
tp1138
a(I255
F0.023438833616374857
tp1139
a(I61
F0.023452652571838466
tp1140
a(I247
F0.0235016817909601
tp1141
a(I279
F0.023520711979233555
tp1142
a(I817
F0.023525413128042683
tp1143
a(I796
F0.023531927521071572
tp1144
a(I109
F0.023560705522226565
tp1145
a(I2088
F0.023580859972306693
tp1146
a(I866
F0.023610523421824257
tp1147
a(I2620
F0.023626502580238695
tp1148
a(I567
F0.023656036620680825
tp1149
a(I96
F0.0236676002868194
tp1150
a(I1501
F0.02369030777132816
tp1151
a(I403
F0.023759206453410977
tp1152
a(I780
F0.023814820823450183
tp1153
a(I1289
F0.023847147222878774
tp1154
a(I525
F0.02385200760504569
tp1155
a(I834
F0.023859017346325093
tp1156
a(I676
F0.023878145992309245
tp1157
a(I356
F0.023913669018115688
tp1158
a(I2055
F0.023914364961873578
tp1159
a(I705
F0.023954653671087654
tp1160
a(I2132
F0.023991862246316366
tp1161
a(I1639
F0.02403590198846252
tp1162
a(I585
F0.024041304992595353
tp1163
a(I610
F0.02409868536529606
tp1164
a(I838
F0.024116599943467903
tp1165
a(I1839
F0.02413042694990741
tp1166
a(I2119
F0.024149899076986305
tp1167
a(I1993
F0.024181487553643164
tp1168
a(I2904
F0.024194526865853723
tp1169
a(I934
F0.024195510935512858
tp1170
a(I50
F0.024223699197503827
tp1171
a(I541
F0.024322721356377
tp1172
a(I650
F0.024330122375294572
tp1173
a(I522
F0.0243873321458737
tp1174
a(I2352
F0.024398541627368216
tp1175
a(I542
F0.02441357045503242
tp1176
a(I1674
F0.024417705954127306
tp1177
a(I1886
F0.02446591443481332
tp1178
a(I707
F0.02448392217875802
tp1179
a(I753
F0.024553280745339072
tp1180
a(I71
F0.02458017861175623
tp1181
a(I844
F0.024592250830637423
tp1182
a(I757
F0.024638249281059833
tp1183
a(I2147
F0.02463992361735326
tp1184
a(I1160
F0.02466725148829015
tp1185
a(I1735
F0.024668002975457574
tp1186
a(I272
F0.02468922563466583
tp1187
a(I489
F0.02471664482395151
tp1188
a(I137
F0.024745505545641738
tp1189
a(I697
F0.02474557940033238
tp1190
a(I605
F0.02476356543201973
tp1191
a(I617
F0.024781305177960698
tp1192
a(I790
F0.024865372904920146
tp1193
a(I3063
F0.024899807275090304
tp1194
a(I48
F0.02495120962729855
tp1195
a(I3407
F0.024968774061354355
tp1196
a(I2005
F0.025031222764811574
tp1197
a(I465
F0.025052885062226443
tp1198
a(I136
F0.02507252702668078
tp1199
a(I1528
F0.02513228468739271
tp1200
a(I3438
F0.025164031225106662
tp1201
a(I3564
F0.025201148279750587
tp1202
a(I673
F0.025330492230055273
tp1203
a(I738
F0.02534792581391675
tp1204
a(I1392
F0.025427009382145403
tp1205
a(I1259
F0.025430918530251607
tp1206
a(I1767
F0.025507966620333212
tp1207
a(I3634
F0.025537287216810756
tp1208
a(I1444
F0.025570380252005698
tp1209
a(I1400
F0.025622999567117364
tp1210
a(I2578
F0.025652499691812106
tp1211
a(I358
F0.025683406460574227
tp1212
a(I994
F0.025702166692761503
tp1213
a(I319
F0.025717276380144514
tp1214
a(I2201
F0.025721910595957156
tp1215
a(I2772
F0.02573266965828019
tp1216
a(I784
F0.025814026278692878
tp1217
a(I701
F0.02584698551185915
tp1218
a(I2767
F0.025883292886284628
tp1219
a(I853
F0.025894699161295644
tp1220
a(I1300
F0.02591233675143142
tp1221
a(I1772
F0.025924808945892202
tp1222
a(I327
F0.0259671548192491
tp1223
a(I857
F0.025978461070766973
tp1224
a(I1072
F0.025995866246189676
tp1225
a(I2048
F0.026003678091107974
tp1226
a(I581
F0.02600591539987666
tp1227
a(I301
F0.026009733950848133
tp1228
a(I950
F0.026064192670663185
tp1229
a(I289
F0.026075879690586255
tp1230
a(I455
F0.02607727276049256
tp1231
a(I267
F0.02607773550575706
tp1232
a(I812
F0.02608361767148652
tp1233
a(I437
F0.02609331248141491
tp1234
a(I627
F0.02612758850260986
tp1235
a(I236
F0.026225677349732083
tp1236
a(I2506
F0.026245842505497073
tp1237
a(I2134
F0.02627239075137407
tp1238
a(I1242
F0.026296622511465115
tp1239
a(I1859
F0.026315956290522358
tp1240
a(I1348
F0.026332326524729072
tp1241
a(I3510
F0.02638324252415514
tp1242
a(I524
F0.026389519948742245
tp1243
a(I460
F0.026513890345077028
tp1244
a(I1469
F0.026525770555879142
tp1245
a(I257
F0.026544082426207333
tp1246
a(I1425
F0.026546802639434503
tp1247
a(I208
F0.026605819959364098
tp1248
a(I976
F0.026666503505264793
tp1249
a(I138
F0.026701910562558405
tp1250
a(I2357
F0.02672054855096996
tp1251
a(I569
F0.026744980557079107
tp1252
a(I907
F0.026775779391694877
tp1253
a(I2545
F0.02681218579236748
tp1254
a(I663
F0.026818935110304063
tp1255
a(I1237
F0.026819875274430537
tp1256
a(I737
F0.026849322341586317
tp1257
a(I1142
F0.02689070874539193
tp1258
a(I2330
F0.026892264277420953
tp1259
a(I2355
F0.026911454261415856
tp1260
a(I2990
F0.026951627734865664
tp1261
a(I1719
F0.027042161055996494
tp1262
a(I173
F0.027061557267933092
tp1263
a(I3187
F0.027080928697872115
tp1264
a(I821
F0.02709479951591068
tp1265
a(I1950
F0.027187430164786905
tp1266
a(I1128
F0.027194851107547546
tp1267
a(I2061
F0.02720098338853318
tp1268
a(I1269
F0.027350978635304564
tp1269
a(I942
F0.027359133713701248
tp1270
a(I1589
F0.027387627279515738
tp1271
a(I1188
F0.02747809020276729
tp1272
a(I2439
F0.027497724496846197
tp1273
a(I971
F0.027521548130050758
tp1274
a(I1183
F0.027614340614239296
tp1275
a(I1003
F0.02765084635541767
tp1276
a(I1345
F0.027658032544535267
tp1277
a(I1119
F0.027663118747656913
tp1278
a(I1422
F0.027688797657008254
tp1279
a(I1684
F0.02770919092474817
tp1280
a(I883
F0.027712894405986094
tp1281
a(I1972
F0.027859197473437854
tp1282
a(I1303
F0.027868955434487776
tp1283
a(I2523
F0.027900009839036743
tp1284
a(I2478
F0.027918732200014555
tp1285
a(I1657
F0.027940344901017402
tp1286
a(I1355
F0.027957924709195094
tp1287
a(I856
F0.027960294557070654
tp1288
a(I2405
F0.028072572502155373
tp1289
a(I76
F0.028077317204018744
tp1290
a(I196
F0.02808478839459283
tp1291
a(I3561
F0.028086508697575653
tp1292
a(I334
F0.028108830919406618
tp1293
a(I837
F0.028155060703631118
tp1294
a(I1146
F0.028250406544718238
tp1295
a(I898
F0.028324173617402876
tp1296
a(I827
F0.02837730888525711
tp1297
a(I2875
F0.028424388973157872
tp1298
a(I1180
F0.02845305745616675
tp1299
a(I1111
F0.028462586870921798
tp1300
a(I947
F0.02846262134306026
tp1301
a(I900
F0.028478126271474294
tp1302
a(I744
F0.02855875017366587
tp1303
a(I687
F0.028602982885778717
tp1304
a(I836
F0.028621552345588618
tp1305
a(I1396
F0.02863108337240802
tp1306
a(I170
F0.028634571636535638
tp1307
a(I1715
F0.02864429283162306
tp1308
a(I324
F0.028667444159142283
tp1309
a(I2281
F0.028732532844088637
tp1310
a(I743
F0.02882393217741144
tp1311
a(I480
F0.02884721716185732
tp1312
a(I555
F0.02890742081759362
tp1313
a(I944
F0.028961384367020802
tp1314
a(I2979
F0.0289829894960617
tp1315
a(I721
F0.029118477214081184
tp1316
a(I2028
F0.029144149638190966
tp1317
a(I1733
F0.029230261409660247
tp1318
a(I1714
F0.02924794400139434
tp1319
a(I439
F0.0292537065297994
tp1320
a(I981
F0.029260795967090268
tp1321
a(I860
F0.029271115803371706
tp1322
a(I831
F0.029283208549068865
tp1323
a(I2429
F0.029285482925447786
tp1324
a(I552
F0.029320204195653593
tp1325
a(I118
F0.02933512171630782
tp1326
a(I1016
F0.029399630377178968
tp1327
a(I3158
F0.02942011733376609
tp1328
a(I862
F0.02947494828703725
tp1329
a(I962
F0.029530928082311458
tp1330
a(I1935
F0.029564703404855713
tp1331
a(I1753
F0.029614960069716402
tp1332
a(I1434
F0.029666299678062627
tp1333
a(I1890
F0.029799160273769224
tp1334
a(I2744
F0.029838348225964557
tp1335
a(I3120
F0.02985076994198671
tp1336
a(I325
F0.029876564493218752
tp1337
a(I580
F0.029894733948218632
tp1338
a(I1790
F0.029904094004924137
tp1339
a(I1651
F0.029911975445548668
tp1340
a(I2730
F0.029964068211666566
tp1341
a(I2696
F0.029987804001356862
tp1342
a(I1648
F0.030018341715707657
tp1343
a(I2130
F0.0300956128632073
tp1344
a(I2184
F0.03013648346986048
tp1345
a(I2376
F0.03013664534926758
tp1346
a(I1710
F0.030156437758704573
tp1347
a(I164
F0.030182327922753254
tp1348
a(I3635
F0.03022033156978062
tp1349
a(I515
F0.03024388951118126
tp1350
a(I745
F0.030263014254207816
tp1351
a(I2829
F0.030283413415810072
tp1352
a(I1649
F0.030324911832275023
tp1353
a(I1745
F0.030435720752062818
tp1354
a(I1693
F0.030438167952856827
tp1355
a(I1802
F0.030457252922619693
tp1356
a(I2018
F0.030459742158198314
tp1357
a(I2921
F0.03051559156255868
tp1358
a(I714
F0.030628053724674708
tp1359
a(I3029
F0.03068228857331376
tp1360
a(I1863
F0.03068963650295375
tp1361
a(I2292
F0.030692151020292224
tp1362
a(I641
F0.030702591477223252
tp1363
a(I2255
F0.030744397454871904
tp1364
a(I720
F0.030754311807257465
tp1365
a(I3625
F0.03075519554745387
tp1366
a(I2976
F0.030785964909095725
tp1367
a(I873
F0.030917844562811332
tp1368
a(I1233
F0.030927373225839286
tp1369
a(I1340
F0.03093421451055459
tp1370
a(I1512
F0.03096037806162874
tp1371
a(I574
F0.03096157799701414
tp1372
a(I2825
F0.030965032695029385
tp1373
a(I2774
F0.031074674443920106
tp1374
a(I2740
F0.031283560507770626
tp1375
a(I332
F0.03131177628647989
tp1376
a(I1854
F0.0313209288915997
tp1377
a(I2953
F0.03132697065967315
tp1378
a(I1053
F0.031331077809598706
tp1379
a(I2374
F0.03134721083928831
tp1380
a(I2544
F0.03140298412050032
tp1381
a(I2218
F0.03156567602420228
tp1382
a(I1585
F0.031571558061007504
tp1383
a(I1755
F0.03157550394537011
tp1384
a(I133
F0.03164611565515373
tp1385
a(I2115
F0.03171450686438573
tp1386
a(I2395
F0.03172091122242671
tp1387
a(I1169
F0.03173003486681393
tp1388
a(I895
F0.031782298940195096
tp1389
a(I2303
F0.0318146184412291
tp1390
a(I2456
F0.031826690358940396
tp1391
a(I970
F0.03186289930393934
tp1392
a(I2367
F0.031946455776218165
tp1393
a(I1983
F0.03196350078812231
tp1394
a(I1431
F0.032043907444840376
tp1395
a(I1389
F0.032055547112191086
tp1396
a(I1007
F0.03208070883006654
tp1397
a(I98
F0.03210440948834414
tp1398
a(I2466
F0.03214847888063165
tp1399
a(I1959
F0.03217344026778344
tp1400
a(I1191
F0.03218075889448143
tp1401
a(I1027
F0.032214987908781606
tp1402
a(I1781
F0.032228851972851476
tp1403
a(I281
F0.03226478134017052
tp1404
a(I2796
F0.032282828915028455
tp1405
a(I1840
F0.03231156369533248
tp1406
a(I2810
F0.03231564615068404
tp1407
a(I1056
F0.032325605092151107
tp1408
a(I2114
F0.03233023972773162
tp1409
a(I1592
F0.03239540434338858
tp1410
a(I1997
F0.032434352053638045
tp1411
a(I1113
F0.032437955480364225
tp1412
a(I2269
F0.032486068894147055
tp1413
a(I3152
F0.032511810632822255
tp1414
a(I1836
F0.03254630580323186
tp1415
a(I1157
F0.032553480852910675
tp1416
a(I3062
F0.03257846066522269
tp1417
a(I2960
F0.032626238764329525
tp1418
a(I232
F0.032638498099760306
tp1419
a(I326
F0.03264988205715074
tp1420
a(I108
F0.032803275380904384
tp1421
a(I1967
F0.03280578666970045
tp1422
a(I1791
F0.03282257773914177
tp1423
a(I984
F0.03289502854340433
tp1424
a(I980
F0.03294041428879021
tp1425
a(I384
F0.03296067869594255
tp1426
a(I503
F0.032962572144901094
tp1427
a(I291
F0.033005221139605405
tp1428
a(I341
F0.03305600339968611
tp1429
a(I1207
F0.03315574088108856
tp1430
a(I2751
F0.03318520585692911
tp1431
a(I1005
F0.03320864475520908
tp1432
a(I1475
F0.03329096187474866
tp1433
a(I794
F0.033381490228973854
tp1434
a(I171
F0.03339191854374295
tp1435
a(I2062
F0.03347175615034562
tp1436
a(I1586
F0.033544710922403596
tp1437
a(I2063
F0.033562610642233245
tp1438
a(I80
F0.03356708261347362
tp1439
a(I1002
F0.03361698577072982
tp1440
a(I2731
F0.03363147346673878
tp1441
a(I1435
F0.033717328515147534
tp1442
a(I1032
F0.03391893566757025
tp1443
a(I375
F0.03392121965863434
tp1444
a(I943
F0.03392597775370441
tp1445
a(I408
F0.033982471800284235
tp1446
a(I2143
F0.03415315133122791
tp1447
a(I2643
F0.034213636939566396
tp1448
a(I1213
F0.03424603177381742
tp1449
a(I964
F0.03427348784669999
tp1450
a(I2087
F0.03428578034252178
tp1451
a(I313
F0.034320676420003506
tp1452
a(I2025
F0.03436426584153806
tp1453
a(I1979
F0.034404351647653736
tp1454
a(I989
F0.03440604762562287
tp1455
a(I2636
F0.034455681586088006
tp1456
a(I2835
F0.03446768837775935
tp1457
a(I885
F0.03447515530391257
tp1458
a(I583
F0.034475546945947115
tp1459
a(I548
F0.034493585426312326
tp1460
a(I2397
F0.03449628438028771
tp1461
a(I2635
F0.03459419225135179
tp1462
a(I491
F0.0346705003566995
tp1463
a(I433
F0.03467410516452632
tp1464
a(I2406
F0.03471042899546009
tp1465
a(I1986
F0.034724380308960606
tp1466
a(I88
F0.034753841710105364
tp1467
a(I1965
F0.03480679552316772
tp1468
a(I1214
F0.03480968151260668
tp1469
a(I1666
F0.03484755477289492
tp1470
a(I2952
F0.034885769382016873
tp1471
a(I2117
F0.03489563218182463
tp1472
a(I589
F0.03492616340022188
tp1473
a(I2323
F0.03498669127952936
tp1474
a(I1354
F0.0350023175350097
tp1475
a(I122
F0.03508096033808335
tp1476
a(I3175
F0.035210385983524904
tp1477
a(I909
F0.03528984608855156
tp1478
a(I1243
F0.03530648885469202
tp1479
a(I309
F0.035318117242958365
tp1480
a(I2866
F0.03545581638481
tp1481
a(I2007
F0.035460841674574646
tp1482
a(I1171
F0.035473670357845474
tp1483
a(I473
F0.03549870916309547
tp1484
a(I2625
F0.03550632699240672
tp1485
a(I2798
F0.03552044345436273
tp1486
a(I792
F0.035584294729788454
tp1487
a(I877
F0.035609911266471395
tp1488
a(I1238
F0.03564417785208772
tp1489
a(I1291
F0.03567355920949699
tp1490
a(I1147
F0.03570099881497114
tp1491
a(I2024
F0.0357300552924805
tp1492
a(I1218
F0.03577511629500561
tp1493
a(I1263
F0.03578019951774743
tp1494
a(I1497
F0.03583114343645795
tp1495
a(I2476
F0.035849911639803486
tp1496
a(I1441
F0.03589624692026316
tp1497
a(I1098
F0.035898559948020575
tp1498
a(I1042
F0.03589870486498914
tp1499
a(I1249
F0.035965661465552884
tp1500
a(I1260
F0.03599311447307528
tp1501
a(I2526
F0.03599419510719514
tp1502
a(I1273
F0.03606637555436349
tp1503
a(I1825
F0.036069961314694185
tp1504
a(I3031
F0.036167532347566804
tp1505
a(I2417
F0.03625943651495593
tp1506
a(I1069
F0.03626986526884848
tp1507
a(I2700
F0.036316681149145755
tp1508
a(I60
F0.036335257605171555
tp1509
a(I861
F0.0364462352556239
tp1510
a(I618
F0.03645266852993634
tp1511
a(I2220
F0.036473981889021026
tp1512
a(I1247
F0.03651205826038537
tp1513
a(I850
F0.0365320439794651
tp1514
a(I2757
F0.03658815371969715
tp1515
a(I2188
F0.03664321057719363
tp1516
a(I674
F0.0368306782616923
tp1517
a(I2585
F0.0368485342023838
tp1518
a(I2531
F0.036887353362670544
tp1519
a(I1769
F0.03696826675404066
tp1520
a(I727
F0.03702234968752953
tp1521
a(I2107
F0.0371617161084261
tp1522
a(I899
F0.03718226854042635
tp1523
a(I3181
F0.03720183823642075
tp1524
a(I691
F0.03724646133315693
tp1525
a(I3086
F0.037311624335704424
tp1526
a(I2573
F0.03737992735238897
tp1527
a(I1038
F0.03738431725298733
tp1528
a(I2869
F0.03747767960316414
tp1529
a(I2787
F0.03748486639940748
tp1530
a(I966
F0.03755856728912813
tp1531
a(I2884
F0.03755857046831971
tp1532
a(I1306
F0.03756252404301612
tp1533
a(I1021
F0.03757002096459639
tp1534
a(I2890
F0.03758427164962275
tp1535
a(I1760
F0.037587520901239894
tp1536
a(I1287
F0.03759450860826783
tp1537
a(I2425
F0.037659414422789306
tp1538
a(I887
F0.03766501656914577
tp1539
a(I1977
F0.03770720292375588
tp1540
a(I3190
F0.03772328005121749
tp1541
a(I1382
F0.037801115808514064
tp1542
a(I870
F0.03781733128117178
tp1543
a(I3180
F0.037873250773519496
tp1544
a(I1635
F0.03793344180919313
tp1545
a(I961
F0.0379673336412783
tp1546
a(I556
F0.038001052739570544
tp1547
a(I2902
F0.038014857020320966
tp1548
a(I1637
F0.03806090812022432
tp1549
a(I1358
F0.0380714753142917
tp1550
a(I1115
F0.03809140392032816
tp1551
a(I1361
F0.03810122725252214
tp1552
a(I2472
F0.03811173569402176
tp1553
a(I2111
F0.03811297390841389
tp1554
a(I2242
F0.038134374317229554
tp1555
a(I680
F0.03813818800010724
tp1556
a(I2680
F0.03820214216311506
tp1557
a(I2196
F0.03823996797699468
tp1558
a(I1650
F0.03825514699520573
tp1559
a(I997
F0.03826113288602608
tp1560
a(I3056
F0.03828651095277964
tp1561
a(I2377
F0.038348201216276835
tp1562
a(I739
F0.038360917872998244
tp1563
a(I974
F0.03838576517775728
tp1564
a(I3637
F0.03847862514488096
tp1565
a(I969
F0.0385019063597851
tp1566
a(I2392
F0.038514083201409796
tp1567
a(I2066
F0.03852391685991949
tp1568
a(I1883
F0.03862992826220073
tp1569
a(I996
F0.038645752906702927
tp1570
a(I1403
F0.03866416429449239
tp1571
a(I703
F0.038689898591943675
tp1572
a(I2582
F0.03869124566536256
tp1573
a(I1363
F0.03869198906137281
tp1574
a(I849
F0.03873129474665465
tp1575
a(I2808
F0.03877719196917829
tp1576
a(I772
F0.03879273555356855
tp1577
a(I1727
F0.038801764177814196
tp1578
a(I1041
F0.03883946705496229
tp1579
a(I3642
F0.03890361409719227
tp1580
a(I595
F0.03892704380616529
tp1581
a(I1771
F0.03895025544507464
tp1582
a(I2175
F0.03896006938699444
tp1583
a(I783
F0.03906263083482711
tp1584
a(I539
F0.03907473509238278
tp1585
a(I2622
F0.039141082698628434
tp1586
a(I668
F0.03914783062803663
tp1587
a(I1133
F0.039213702181909345
tp1588
a(I282
F0.03922623735075402
tp1589
a(I867
F0.039241164912895365
tp1590
a(I1158
F0.03925422562930071
tp1591
a(I1199
F0.03939919542347257
tp1592
a(I1630
F0.03940424497207126
tp1593
a(I1086
F0.03944893346646686
tp1594
a(I2822
F0.03945732657549495
tp1595
a(I1438
F0.0394628223730883
tp1596
a(I706
F0.0394903605689822
tp1597
a(I1284
F0.039563978808618956
tp1598
a(I3028
F0.039579490941763114
tp1599
a(I3164
F0.03972245865019655
tp1600
a(I51
F0.039723810701076126
tp1601
a(I2604
F0.03973171309674344
tp1602
a(I1529
F0.03979163020814618
tp1603
a(I1474
F0.03980368259879995
tp1604
a(I1964
F0.03986477028597526
tp1605
a(I1297
F0.039949093675429655
tp1606
a(I2509
F0.03998746678783676
tp1607
a(I2826
F0.03999574426648567
tp1608
a(I343
F0.04008160771664096
tp1609
a(I1645
F0.0400827695471186
tp1610
a(I3032
F0.04028984656449381
tp1611
a(I927
F0.04029831389939028
tp1612
a(I1105
F0.040305997237034485
tp1613
a(I1393
F0.040312962541936545
tp1614
a(I2014
F0.04032366139773671
tp1615
a(I667
F0.04032917564505672
tp1616
a(I2758
F0.0403589535835896
tp1617
a(I9
F0.040370535105984734
tp1618
a(I1707
F0.04038196829383969
tp1619
a(I1258
F0.04039474350400582
tp1620
a(I1335
F0.04041662412593058
tp1621
a(I1004
F0.040421344604173425
tp1622
a(I2933
F0.040458316333235995
tp1623
a(I1149
F0.040499597449828936
tp1624
a(I2828
F0.0405049982173553
tp1625
a(I733
F0.040578811250661845
tp1626
a(I2305
F0.040659349547827316
tp1627
a(I2274
F0.04067106081000456
tp1628
a(I2435
F0.04067641000342053
tp1629
a(I2460
F0.040696571320061485
tp1630
a(I1350
F0.040728933362756806
tp1631
a(I2096
F0.04085912780254134
tp1632
a(I2821
F0.04085971815176424
tp1633
a(I1264
F0.040874930823494665
tp1634
a(I936
F0.04088638739790832
tp1635
a(I2056
F0.04090591980423088
tp1636
a(I1914
F0.040913725504455115
tp1637
a(I1089
F0.040950740364665554
tp1638
a(I1505
F0.04097703529355063
tp1639
a(I1012
F0.04104399176261497
tp1640
a(I2389
F0.04109714286149554
tp1641
a(I823
F0.04109723156293006
tp1642
a(I2806
F0.041119451374598236
tp1643
a(I2203
F0.04118805967202101
tp1644
a(I485
F0.04118894659768607
tp1645
a(I1008
F0.04123800532862439
tp1646
a(I1448
F0.04132083444169747
tp1647
a(I2388
F0.04137929933499665
tp1648
a(I1499
F0.041402253123353744
tp1649
a(I998
F0.041446753545261644
tp1650
a(I858
F0.041472844531219764
tp1651
a(I748
F0.04152047796674917
tp1652
a(I756
F0.04153528149883077
tp1653
a(I1819
F0.041553759664522814
tp1654
a(I2067
F0.04157227075566949
tp1655
a(I1937
F0.04164142355434042
tp1656
a(I3118
F0.041655988278132876
tp1657
a(I357
F0.04167162580300728
tp1658
a(I483
F0.041694478325385996
tp1659
a(I448
F0.04171444886557999
tp1660
a(I2878
F0.04172171219221323
tp1661
a(I2373
F0.04179064890759554
tp1662
a(I571
F0.04180537633258219
tp1663
a(I588
F0.041813045404133914
tp1664
a(I747
F0.04196649728791847
tp1665
a(I1467
F0.042010937549200496
tp1666
a(I538
F0.04203975772687027
tp1667
a(I234
F0.042154150387759104
tp1668
a(I1332
F0.0421912401145161
tp1669
a(I978
F0.04223688634834855
tp1670
a(I2273
F0.04229554950168218
tp1671
a(I3021
F0.04234298748767919
tp1672
a(I1051
F0.042351977843226536
tp1673
a(I1360
F0.04243984806883252
tp1674
a(I1704
F0.04244823857328805
tp1675
a(I2013
F0.04253988748074033
tp1676
a(I1107
F0.04263811575129356
tp1677
a(I1748
F0.04268345149580175
tp1678
a(I2885
F0.042719377468473776
tp1679
a(I1224
F0.04275233122295588
tp1680
a(I1691
F0.04281676111356165
tp1681
a(I1143
F0.042845304815454
tp1682
a(I166
F0.042901178429579696
tp1683
a(I3357
F0.04296807701307408
tp1684
a(I2060
F0.04299841970712093
tp1685
a(I781
F0.04301479671389439
tp1686
a(I2155
F0.04304178541814825
tp1687
a(I742
F0.04314595003903967
tp1688
a(I2353
F0.043329657464151274
tp1689
a(I1443
F0.043364782165208934
tp1690
a(I1642
F0.04348557610080608
tp1691
a(I1058
F0.043518076392531475
tp1692
a(I2917
F0.043529237480278635
tp1693
a(I2342
F0.043655579241143355
tp1694
a(I2081
F0.04367650644313466
tp1695
a(I1793
F0.04368252550413312
tp1696
a(I1349
F0.04373620995454652
tp1697
a(I750
F0.043764667080470374
tp1698
a(I1829
F0.04383162202390703
tp1699
a(I2542
F0.043887333573683296
tp1700
a(I2487
F0.043900352062927236
tp1701
a(I1750
F0.043965647658991074
tp1702
a(I1029
F0.04398294754834459
tp1703
a(I3185
F0.04401125428185524
tp1704
a(I1262
F0.044014483324676966
tp1705
a(I422
F0.0440532042685907
tp1706
a(I1999
F0.04415607413336814
tp1707
a(I1333
F0.04418212604134185
tp1708
a(I2727
F0.04420237754079006
tp1709
a(I818
F0.04428583210710024
tp1710
a(I2770
F0.04432207065114669
tp1711
a(I1970
F0.0443554385598181
tp1712
a(I2407
F0.04456697827029209
tp1713
a(I611
F0.04456894631943894
tp1714
a(I2039
F0.04461680876223057
tp1715
a(I2172
F0.0446338130943493
tp1716
a(I2500
F0.04463881949180265
tp1717
a(I1077
F0.04469863712385688
tp1718
a(I1163
F0.04479480649395026
tp1719
a(I1201
F0.04494569024991934
tp1720
a(I1780
F0.04502222239029061
tp1721
a(I1776
F0.04503942100496024
tp1722
a(I1100
F0.04508142180260927
tp1723
a(I1255
F0.04508884066658439
tp1724
a(I1229
F0.04510002805173684
tp1725
a(I2381
F0.04511875647028583
tp1726
a(I880
F0.04514403677091149
tp1727
a(I2363
F0.04516399858654551
tp1728
a(I1182
F0.04518716627696428
tp1729
a(I2861
F0.04535636407572686
tp1730
a(I665
F0.04536681168521418
tp1731
a(I3044
F0.04558986486349856
tp1732
a(I2507
F0.045603561634238864
tp1733
a(I1227
F0.04563097922256549
tp1734
a(I2743
F0.045655493483261894
tp1735
a(I233
F0.045770561435477516
tp1736
a(I2198
F0.04579107911493361
tp1737
a(I1131
F0.04582852631195721
tp1738
a(I2936
F0.04588545297969194
tp1739
a(I146
F0.045914832413857666
tp1740
a(I2309
F0.04599991262712547
tp1741
a(I1165
F0.04605592457866864
tp1742
a(I1186
F0.04611819654018337
tp1743
a(I1830
F0.04614070319797932
tp1744
a(I863
F0.04614400678308227
tp1745
a(I614
F0.046301531227677835
tp1746
a(I1093
F0.04637194834936571
tp1747
a(I624
F0.04643309421652982
tp1748
a(I2219
F0.04646563313999692
tp1749
a(I830
F0.046580920080131705
tp1750
a(I2266
F0.04661633465569558
tp1751
a(I1123
F0.046649088078952364
tp1752
a(I1808
F0.04667970483742461
tp1753
a(I3618
F0.04672156540995753
tp1754
a(I1911
F0.046781259511683
tp1755
a(I1305
F0.0467843296579634
tp1756
a(I764
F0.04679663109907334
tp1757
a(I1628
F0.04682730152296857
tp1758
a(I1812
F0.04693960748372729
tp1759
a(I956
F0.046942107265376266
tp1760
a(I1899
F0.04706150524590929
tp1761
a(I848
F0.04714090253680363
tp1762
a(I2877
F0.0471530801282441
tp1763
a(I2497
F0.047242877967500305
tp1764
a(I2078
F0.04734531488417321
tp1765
a(I2391
F0.04744244081970128
tp1766
a(I829
F0.047473547956860734
tp1767
a(I1195
F0.04757837283276464
tp1768
a(I2660
F0.04758842025620042
tp1769
a(I2950
F0.04763939191865207
tp1770
a(I2233
F0.04764677719802097
tp1771
a(I1676
F0.047668877566820894
tp1772
a(I2171
F0.047712921176832034
tp1773
a(I2065
F0.04773037782786815
tp1774
a(I3165
F0.04778649051579611
tp1775
a(I2300
F0.04780871261464468
tp1776
a(I3089
F0.04785253007833076
tp1777
a(I2408
F0.047858531086690415
tp1778
a(I704
F0.04786619999476259
tp1779
a(I833
F0.04788300490682903
tp1780
a(I1792
F0.048165343794456535
tp1781
a(I82
F0.04818412847951119
tp1782
a(I1364
F0.04819315754943523
tp1783
a(I3182
F0.0482356050513117
tp1784
a(I2153
F0.048256781064814264
tp1785
a(I1075
F0.048264439249859376
tp1786
a(I751
F0.04830697977212191
tp1787
a(I2370
F0.048329060084456255
tp1788
a(I1471
F0.0483355495566902
tp1789
a(I2017
F0.0483473062881348
tp1790
a(I1173
F0.048539047588477074
tp1791
a(I197
F0.04858575959483785
tp1792
a(I252
F0.04866888551654326
tp1793
a(I3145
F0.04879104303073996
tp1794
a(I2259
F0.04888304571161207
tp1795
a(I2897
F0.04888601536717927
tp1796
a(I1054
F0.04889525683263967
tp1797
a(I1196
F0.048912782883238144
tp1798
a(I2073
F0.04896706289355498
tp1799
a(I1323
F0.04904010859263916
tp1800
a(I931
F0.04910313525228927
tp1801
a(I1929
F0.049168989342492087
tp1802
a(I2074
F0.049228809735254946
tp1803
a(I1261
F0.049373354206190774
tp1804
a(I633
F0.049413434242141376
tp1805
a(I296
F0.04943427017037762
tp1806
a(I3002
F0.049472121772667015
tp1807
a(I2733
F0.049482437687542
tp1808
a(I66
F0.04949974873080042
tp1809
a(I608
F0.04988370865527532
tp1810
a(I3157
F0.04991860749859078
tp1811
a(I2576
F0.04994237577445586
tp1812
a(I2817
F0.049970392796743285
tp1813
a(I1406
F0.050043630748908066
tp1814
a(I3134
F0.050070043400879234
tp1815
a(I1923
F0.0500768089789736
tp1816
a(I3097
F0.050138115503906656
tp1817
a(I3109
F0.05015829046583524
tp1818
a(I1515
F0.05016831155741612
tp1819
a(I1906
F0.050206175893458695
tp1820
a(I1083
F0.050399657545330066
tp1821
a(I2564
F0.050413638797264765
tp1822
a(I1675
F0.05048473109474377
tp1823
a(I2320
F0.05055394174435803
tp1824
a(I2293
F0.050565148296912076
tp1825
a(I1245
F0.05061552634471353
tp1826
a(I38
F0.050638664308649946
tp1827
a(I824
F0.0506866345974603
tp1828
a(I2378
F0.05075853117747549
tp1829
a(I1842
F0.050843616809939866
tp1830
a(I3640
F0.05089605602849896
tp1831
a(I1955
F0.051008646852903024
tp1832
a(I1026
F0.05104016538418116
tp1833
a(I1375
F0.051132561490780964
tp1834
a(I1043
F0.05119873121411625
tp1835
a(I2135
F0.05127839761504998
tp1836
a(I3041
F0.05129732783405405
tp1837
a(I1638
F0.05135394416889294
tp1838
a(I1809
F0.05136386144417421
tp1839
a(I832
F0.05136558471259007
tp1840
a(I1452
F0.051394959806840466
tp1841
a(I2556
F0.0514644878155331
tp1842
a(I3015
F0.05151024787461809
tp1843
a(I1855
F0.051519160056537526
tp1844
a(I1945
F0.051558590242122504
tp1845
a(I2050
F0.051573515008929094
tp1846
a(I990
F0.05160370632181471
tp1847
a(I1522
F0.05166391838067353
tp1848
a(I1197
F0.05172989935038305
tp1849
a(I594
F0.05173335189993231
tp1850
a(I864
F0.051739506784024634
tp1851
a(I932
F0.05180814281029043
tp1852
a(I1506
F0.0518783615013906
tp1853
a(I3617
F0.05189730046401861
tp1854
a(I914
F0.05193889843290295
tp1855
a(I1047
F0.05193962278860204
tp1856
a(I1190
F0.051970895609653754
tp1857
a(I2956
F0.05199514589952294
tp1858
a(I890
F0.052086131840561205
tp1859
a(I3025
F0.05208874767384468
tp1860
a(I2681
F0.05209787305337994
tp1861
a(I1757
F0.052191899487472514
tp1862
a(I1866
F0.05223117015113383
tp1863
a(I1500
F0.052344051189453414
tp1864
a(I915
F0.052348097013162544
tp1865
a(I2584
F0.052381027027214984
tp1866
a(I2394
F0.05238812258538168
tp1867
a(I1636
F0.052420337390724984
tp1868
a(I2080
F0.05245906406423533
tp1869
a(I1172
F0.05250225690233131
tp1870
a(I940
F0.05250585929461906
tp1871
a(I3620
F0.05251649070849624
tp1872
a(I1044
F0.052636674712462146
tp1873
a(I1627
F0.052675514737896355
tp1874
a(I2978
F0.05270039365805918
tp1875
a(I2867
F0.05274181900910853
tp1876
a(I892
F0.05274849538118028
tp1877
a(I1736
F0.052762476010082694
tp1878
a(I1872
F0.05279123860002446
tp1879
a(I3177
F0.05290570929466859
tp1880
a(I700
F0.05296809875772036
tp1881
a(I1311
F0.052968924989753995
tp1882
a(I1897
F0.052984143293346365
tp1883
a(I2265
F0.05300400799530156
tp1884
a(I2302
F0.053045043797835326
tp1885
a(I955
F0.05305626927324552
tp1886
a(I2678
F0.053064080237154324
tp1887
a(I2221
F0.05307415379840374
tp1888
a(I2194
F0.05321241981468819
tp1889
a(I2548
F0.053319650679348685
tp1890
a(I1918
F0.05339738169758289
tp1891
a(I2270
F0.05352343008451441
tp1892
a(I2683
F0.05360185523994876
tp1893
a(I2521
F0.05366542203084941
tp1894
a(I1446
F0.053737240575575274
tp1895
a(I1973
F0.05374840986192946
tp1896
a(I1857
F0.053758804354570984
tp1897
a(I2387
F0.05379108916907168
tp1898
a(I1917
F0.05384213947141405
tp1899
a(I2072
F0.05389614916174236
tp1900
a(I3651
F0.054030458579369826
tp1901
a(I1410
F0.05404692925159145
tp1902
a(I670
F0.05408164172712538
tp1903
a(I889
F0.05408730593649571
tp1904
a(I2600
F0.05410412570064299
tp1905
a(I428
F0.05411642903529209
tp1906
a(I1099
F0.05411923780272879
tp1907
a(I1121
F0.054159653084379575
tp1908
a(I615
F0.054176868683221184
tp1909
a(I1593
F0.054209556731165565
tp1910
a(I1775
F0.05422423956540332
tp1911
a(I1076
F0.05422529662644075
tp1912
a(I1156
F0.0542584010629615
tp1913
a(I2422
F0.054258929338761204
tp1914
a(I1091
F0.05429478871945066
tp1915
a(I2963
F0.05429992317908699
tp1916
a(I3167
F0.05435834094857445
tp1917
a(I2747
F0.05448018382182945
tp1918
a(I2071
F0.054589276481350056
tp1919
a(I174
F0.054659347353693356
tp1920
a(I1513
F0.054793529245682836
tp1921
a(I723
F0.0547944092729224
tp1922
a(I3566
F0.054819667983526846
tp1923
a(I2244
F0.054838191631902684
tp1924
a(I2430
F0.05494875789579665
tp1925
a(I2402
F0.055041031897157026
tp1926
a(I2492
F0.05508117709399328
tp1927
a(I2712
F0.05511401283621125
tp1928
a(I1084
F0.05515310138703624
tp1929
a(I1831
F0.055202936035996755
tp1930
a(I2608
F0.05523336221874107
tp1931
a(I2212
F0.055249831590601026
tp1932
a(I851
F0.05529432698692792
tp1933
a(I1405
F0.0553123371815298
tp1934
a(I1101
F0.055412257288562264
tp1935
a(I1129
F0.05545829100738045
tp1936
a(I2296
F0.0554617306061036
tp1937
a(I1766
F0.05549363413956568
tp1938
a(I1851
F0.05559375179400361
tp1939
a(I1168
F0.05565906686919732
tp1940
a(I2763
F0.055718317044809076
tp1941
a(I2236
F0.05590045107379288
tp1942
a(I1815
F0.056098403624591016
tp1943
a(I2593
F0.05611419447647106
tp1944
a(I879
F0.0561542180271164
tp1945
a(I1516
F0.05617651666848117
tp1946
a(I1330
F0.05638201746510741
tp1947
a(I1409
F0.05652559108577913
tp1948
a(I2512
F0.056536316188526614
tp1949
a(I464
F0.0565494414419088
tp1950
a(I1215
F0.05655287666427269
tp1951
a(I2729
F0.056587364996253844
tp1952
a(I2800
F0.05659307355996698
tp1953
a(I1941
F0.05673091182564274
tp1954
a(I487
F0.056792718666217414
tp1955
a(I1988
F0.05692402028355377
tp1956
a(I1397
F0.05702858311288987
tp1957
a(I894
F0.05704941304421806
tp1958
a(I2144
F0.057202066018967865
tp1959
a(I1288
F0.0572627287724012
tp1960
a(I1594
F0.057357754627726014
tp1961
a(I1720
F0.05738251720586826
tp1962
a(I550
F0.0574239148395366
tp1963
a(I1110
F0.05744422938025019
tp1964
a(I1922
F0.05780108935851715
tp1965
a(I613
F0.05788623189464955
tp1966
a(I912
F0.057913466445673814
tp1967
a(I1325
F0.05791678632783118
tp1968
a(I2474
F0.0579632288880517
tp1969
a(I2880
F0.057984688870205664
tp1970
a(I2519
F0.05800086656010108
tp1971
a(I2383
F0.05801582905191868
tp1972
a(I2881
F0.058045397382426006
tp1973
a(I2325
F0.05817287013454079
tp1974
a(I2626
F0.058194989532038596
tp1975
a(I1874
F0.058242987658186716
tp1976
a(I2468
F0.058309442197449476
tp1977
a(I1880
F0.058477270865994496
tp1978
a(I1404
F0.05850043553609365
tp1979
a(I587
F0.05856475004451851
tp1980
a(I2176
F0.05856949190434388
tp1981
a(I579
F0.058647534548745384
tp1982
a(I2247
F0.05870060586060029
tp1983
a(I1976
F0.058807502590978195
tp1984
a(I1981
F0.05880859805235292
tp1985
a(I1596
F0.05886659620126163
tp1986
a(I1472
F0.05894062014445821
tp1987
a(I3116
F0.05906520886395651
tp1988
a(I1307
F0.05908734288051432
tp1989
a(I1846
F0.059114996952682575
tp1990
a(I2149
F0.05916998959954307
tp1991
a(I2942
F0.0592388579979579
tp1992
a(I1154
F0.059272947186344495
tp1993
a(I1254
F0.05929846279434283
tp1994
a(I2101
F0.05942078643922195
tp1995
a(I1286
F0.059524013605583036
tp1996
a(I65
F0.05953345352439031
tp1997
a(I1049
F0.05954566940887651
tp1998
a(I3064
F0.059552174651671654
tp1999
a(I1006
F0.05960026457824517
tp2000
a(I1193
F0.05966354943279788
tp2001
a(I488
F0.059673673589262996
tp2002
a(I1166
F0.05971230945469765
tp2003
a(I2133
F0.05973124648764794
tp2004
a(I2350
F0.0597611177235052
tp2005
a(I2393
F0.05976490749585078
tp2006
a(I1688
F0.05976982201972942
tp2007
a(I2257
F0.059789173857517794
tp2008
a(I2230
F0.05989185206640545
tp2009
a(I2095
F0.06002662395777265
tp2010
a(I2369
F0.06002717018781869
tp2011
a(I1758
F0.060233952802658516
tp2012
a(I2329
F0.06024579413490479
tp2013
a(I2671
F0.06030152788618633
tp2014
a(I2524
F0.06032174819611203
tp2015
a(I2341
F0.06033964746020329
tp2016
a(I2210
F0.06036477148313742
tp2017
a(I626
F0.06044249353692369
tp2018
a(I2159
F0.060544147570536555
tp2019
a(I2670
F0.06058227854424066
tp2020
a(I2122
F0.06062023193070668
tp2021
a(I719
F0.06063377959525817
tp2022
a(I1697
F0.06065502127705227
tp2023
a(I1450
F0.06066198189309977
tp2024
a(I2278
F0.06073933347681213
tp2025
a(I2663
F0.06073978077486784
tp2026
a(I2795
F0.060847710948444676
tp2027
a(I1266
F0.06101834426102759
tp2028
a(I2267
F0.06102460569759739
tp2029
a(I925
F0.061110356023311246
tp2030
a(I2209
F0.061187033706405616
tp2031
a(I2938
F0.061208305035805856
tp2032
a(I1017
F0.061224788870537034
tp2033
a(I2525
F0.061487969583114546
tp2034
a(I2638
F0.061589373789480435
tp2035
a(I1299
F0.06159121626461971
tp2036
a(I1118
F0.061700321382455736
tp2037
a(I1090
F0.061707606380573175
tp2038
a(I1797
F0.06171567576098776
tp2039
a(I1523
F0.06174015344819427
tp2040
a(I916
F0.06183154613900213
tp2041
a(I3172
F0.06184217469679799
tp2042
a(I2160
F0.06185662292552249
tp2043
a(I1889
F0.06189318356857194
tp2044
a(I2268
F0.06191002029691015
tp2045
a(I3163
F0.061916080041837546
tp2046
a(I1944
F0.061932678338974534
tp2047
a(I2914
F0.061987779445702065
tp2048
a(I1240
F0.06201259067607274
tp2049
a(I2108
F0.06205175181492722
tp2050
a(I2898
F0.06211486528183637
tp2051
a(I2986
F0.06218202147303188
tp2052
a(I612
F0.06221122938719862
tp2053
a(I2098
F0.06227214308781795
tp2054
a(I1062
F0.062275207765858785
tp2055
a(I2484
F0.062311547260955155
tp2056
a(I2106
F0.062447365221020644
tp2057
a(I2415
F0.06248915546681802
tp2058
a(I920
F0.06250594599310835
tp2059
a(I1813
F0.06250997986406466
tp2060
a(I2843
F0.06251156891741097
tp2061
a(I1680
F0.06253391857602472
tp2062
a(I504
F0.06266846333766317
tp2063
a(I3027
F0.0626737180458544
tp2064
a(I717
F0.06271982587153538
tp2065
a(I1329
F0.06273411157857353
tp2066
a(I1508
F0.06273991693572312
tp2067
a(I2831
F0.06283474568261697
tp2068
a(I2616
F0.06296489677514318
tp2069
a(I1795
F0.06310685195176957
tp2070
a(I938
F0.06319095785464697
tp2071
a(I1116
F0.06322166247336598
tp2072
a(I2962
F0.06323037963368418
tp2073
a(I1764
F0.06325171116971459
tp2074
a(I2909
F0.06335666047211376
tp2075
a(I2431
F0.0633632784983886
tp2076
a(I3076
F0.06338015646112248
tp2077
a(I3088
F0.06340702687156512
tp2078
a(I2516
F0.06341369195702123
tp2079
a(I1928
F0.06352809778192907
tp2080
a(I507
F0.0635345880226259
tp2081
a(I2019
F0.06356656087641081
tp2082
a(I1153
F0.06360294223387118
tp2083
a(I854
F0.06367037239370366
tp2084
a(I2686
F0.06374029808263408
tp2085
a(I948
F0.06376007656473669
tp2086
a(I2522
F0.0637722046620432
tp2087
a(I2473
F0.06384536485477799
tp2088
a(I2432
F0.06393476574451769
tp2089
a(I1865
F0.06398754888312558
tp2090
a(I1875
F0.064156754712895
tp2091
a(I1230
F0.06416143717046037
tp2092
a(I949
F0.06417948158407567
tp2093
a(I374
F0.0642724189201075
tp2094
a(I657
F0.06430649051485578
tp2095
a(I2830
F0.06445772777406548
tp2096
a(I986
F0.0645816153125494
tp2097
a(I3138
F0.06462182437336556
tp2098
a(I1456
F0.06474586096954592
tp2099
a(I2738
F0.06477616879512568
tp2100
a(I3140
F0.06484041763141989
tp2101
a(I828
F0.06484746722270061
tp2102
a(I884
F0.06488432663887372
tp2103
a(I212
F0.06491914716010275
tp2104
a(I3001
F0.06514002337635112
tp2105
a(I561
F0.06530954625072262
tp2106
a(I1985
F0.06541664974293732
tp2107
a(I1144
F0.0654414777746106
tp2108
a(I2040
F0.06545909241617266
tp2109
a(I2249
F0.0654683935024446
tp2110
a(I2264
F0.06548473800644214
tp2111
a(I1689
F0.0655173154973107
tp2112
a(I416
F0.0656084836899533
tp2113
a(I1504
F0.06569935993932925
tp2114
a(I2443
F0.06572200398940965
tp2115
a(I2631
F0.0657300969626611
tp2116
a(I1352
F0.06573689482264969
tp2117
a(I2183
F0.0658526706567899
tp2118
a(I3110
F0.06586095578108228
tp2119
a(I749
F0.06586678730481334
tp2120
a(I2097
F0.06590449090373662
tp2121
a(I1789
F0.0659283527106487
tp2122
a(I1858
F0.06596344983966472
tp2123
a(I1175
F0.06607381117024004
tp2124
a(I1478
F0.06624661752711962
tp2125
a(I1322
F0.06635323685869737
tp2126
a(I1692
F0.06640866552514066
tp2127
a(I1517
F0.06641803671423561
tp2128
a(I2624
F0.06649583044928326
tp2129
a(I3121
F0.06657201545185538
tp2130
a(I2077
F0.06661031641973053
tp2131
a(I2317
F0.06671358960811406
tp2132
a(I2148
F0.06681097609121572
tp2133
a(I1315
F0.0668516926178754
tp2134
a(I2641
F0.06715075841341715
tp2135
a(I1292
F0.06724599718424196
tp2136
a(I2705
F0.0673884379062068
tp2137
a(I1401
F0.06739161107266421
tp2138
a(I72
F0.06742343243441694
tp2139
a(I1647
F0.06743117176613347
tp2140
a(I2809
F0.06756565543928943
tp2141
a(I1074
F0.06758873205598857
tp2142
a(I2245
F0.0675996323978392
tp2143
a(I1102
F0.06770512872186382
tp2144
a(I1483
F0.067738495209162
tp2145
a(I3639
F0.0677396310959322
tp2146
a(I2223
F0.06783819653563648
tp2147
a(I635
F0.06788642002278301
tp2148
a(I1502
F0.06814045684199496
tp2149
a(I2491
F0.06825762138158206
tp2150
a(I1510
F0.06826124150741282
tp2151
a(I1943
F0.0684302506779652
tp2152
a(I957
F0.068499603023398
tp2153
a(I2579
F0.06855020739317887
tp2154
a(I2118
F0.06857414695659476
tp2155
a(I1485
F0.06861906088178667
tp2156
a(I2623
F0.06863089812193768
tp2157
a(I983
F0.0686840833135815
tp2158
a(I3149
F0.06882766037608837
tp2159
a(I800
F0.06883341322188573
tp2160
a(I2052
F0.06890826696613225
tp2161
a(I2411
F0.06897509088553301
tp2162
a(I1861
F0.06901438317385591
tp2163
a(I2251
F0.0690560451254814
tp2164
a(I2099
F0.06908736903174109
tp2165
a(I1440
F0.06911934627576648
tp2166
a(I2412
F0.06935437760907381
tp2167
a(I2823
F0.06936452080209933
tp2168
a(I2231
F0.06938704154000158
tp2169
a(I1271
F0.06959001573980667
tp2170
a(I2833
F0.06965917574227755
tp2171
a(I3119
F0.06971139381720252
tp2172
a(I1877
F0.06991308056337929
tp2173
a(I2888
F0.06992805751254996
tp2174
a(I1925
F0.06993363054837662
tp2175
a(I1881
F0.06993911413310945
tp2176
a(I1216
F0.07004684168602573
tp2177
a(I1267
F0.07017185385156448
tp2178
a(I1009
F0.07018038123171212
tp2179
a(I2619
F0.07019888139598325
tp2180
a(I924
F0.07039646469531759
tp2181
a(I1280
F0.07051550320238967
tp2182
a(I2120
F0.07055342270546083
tp2183
a(I1960
F0.07056406803656577
tp2184
a(I1221
F0.07063415967147793
tp2185
a(I11
F0.07082104269830465
tp2186
a(I2324
F0.0708329526334425
tp2187
a(I2785
F0.07086393047687915
tp2188
a(I536
F0.07096902965956153
tp2189
a(I1966
F0.07099280891330294
tp2190
a(I3131
F0.07102074187225715
tp2191
a(I498
F0.07112660225853017
tp2192
a(I1683
F0.07119123322923243
tp2193
a(I659
F0.07122025495569395
tp2194
a(I1722
F0.07125479745714712
tp2195
a(I2361
F0.07138550623249706
tp2196
a(I2876
F0.07146236159459986
tp2197
a(I945
F0.07157907225645205
tp2198
a(I2232
F0.07159182150457782
tp2199
a(I1040
F0.07160013341574102
tp2200
a(I1713
F0.07160627141122311
tp2201
a(I2288
F0.07165439622265816
tp2202
a(I1447
F0.0716765535869061
tp2203
a(I1679
F0.07172858447283421
tp2204
a(I847
F0.07175995917989171
tp2205
a(I2351
F0.071834670996825
tp2206
a(I2737
F0.07184154215183555
tp2207
a(I730
F0.07184352932001636
tp2208
a(I187
F0.07188500590626673
tp2209
a(I1867
F0.07198262647187524
tp2210
a(I3019
F0.07202616952798517
tp2211
a(I1145
F0.07205302651119336
tp2212
a(I1070
F0.07219521524371181
tp2213
a(I2110
F0.07228637556709276
tp2214
a(I2946
F0.07230213516849571
tp2215
a(I1445
F0.0723274823351366
tp2216
a(I2530
F0.07237718669998496
tp2217
a(I2280
F0.07241089114651716
tp2218
a(I1433
F0.07251663538621092
tp2219
a(I390
F0.07255681075686932
tp2220
a(I2436
F0.07256627127840864
tp2221
a(I2684
F0.07264182976459341
tp2222
a(I1926
F0.07266372575589772
tp2223
a(I484
F0.07268056959939222
tp2224
a(I1728
F0.07282737818269791
tp2225
a(I690
F0.07284633900442948
tp2226
a(I2256
F0.07295768066432638
tp2227
a(I1394
F0.07303646389419621
tp2228
a(I2139
F0.07305281776082218
tp2229
a(I3142
F0.07310072571835605
tp2230
a(I952
F0.07330503555639889
tp2231
a(I2237
F0.07361653126212722
tp2232
a(I2179
F0.07377013227436095
tp2233
a(I1669
F0.07377043765544707
tp2234
a(I3169
F0.07397228776488467
tp2235
a(I1827
F0.07400478629331796
tp2236
a(I693
F0.07401716571525972
tp2237
a(I2222
F0.0741018361599812
tp2238
a(I713
F0.07430412802859625
tp2239
a(I2064
F0.07433839786933313
tp2240
a(I1656
F0.07436516171602765
tp2241
a(I3107
F0.0745741153468731
tp2242
a(I2038
F0.07458215354589787
tp2243
a(I1663
F0.07462848707805358
tp2244
a(I2379
F0.0746662911856415
tp2245
a(I1222
F0.07470572679316566
tp2246
a(I1126
F0.07497873587980802
tp2247
a(I3645
F0.07510182100395447
tp2248
a(I2529
F0.07511229692138703
tp2249
a(I1381
F0.07518746138109643
tp2250
a(I2086
F0.0753417557543378
tp2251
a(I2513
F0.07539779704009136
tp2252
a(I1752
F0.07540367265577744
tp2253
a(I3111
F0.07545309562168753
tp2254
a(I2059
F0.0754564031912011
tp2255
a(I85
F0.0756444943655255
tp2256
a(I2213
F0.07585201340363434
tp2257
a(I2995
F0.07586067590011425
tp2258
a(I2762
F0.0759231254019965
tp2259
a(I1968
F0.07603980045491604
tp2260
a(I1465
F0.07604013957871027
tp2261
a(I1060
F0.07613135441700225
tp2262
a(I1996
F0.07638467874489514
tp2263
a(I1136
F0.07645194030766994
tp2264
a(I1481
F0.07652033403651884
tp2265
a(I3060
F0.07668292985364124
tp2266
a(I2656
F0.07675779527845496
tp2267
a(I3621
F0.07709632349056615
tp2268
a(I1108
F0.07711639817511952
tp2269
a(I3643
F0.07721691571948794
tp2270
a(I666
F0.07721916894139677
tp2271
a(I1368
F0.07728252572598726
tp2272
a(I2416
F0.07728253386008832
tp2273
a(I1046
F0.07745615556028612
tp2274
a(I1421
F0.07745681173467385
tp2275
a(I2243
F0.07745719270488556
tp2276
a(I2471
F0.07766761738911923
tp2277
a(I1703
F0.07776065568303633
tp2278
a(I2756
F0.07779057972678254
tp2279
a(I102
F0.07789679834135106
tp2280
a(I3038
F0.07794756172858115
tp2281
a(I2079
F0.07796059020114031
tp2282
a(I1281
F0.07797960670443468
tp2283
a(I1071
F0.07827962553841566
tp2284
a(I3058
F0.07829115451848416
tp2285
a(I958
F0.07843887804838076
tp2286
a(I362
F0.07849303229941815
tp2287
a(I2676
F0.07861113809586998
tp2288
a(I2569
F0.07871987087684097
tp2289
a(I2390
F0.07875387700451214
tp2290
a(I2058
F0.07882519951642462
tp2291
a(I1919
F0.0788286559200487
tp2292
a(I1428
F0.07902119360359944
tp2293
a(I2041
F0.07905239689164124
tp2294
a(I2437
F0.07907391512738711
tp2295
a(I762
F0.0790952339007648
tp2296
a(I1939
F0.07929232287079528
tp2297
a(I1134
F0.07931062354840887
tp2298
a(I2505
F0.0793321758947083
tp2299
a(I2693
F0.07953594605541893
tp2300
a(I1050
F0.07967981675194966
tp2301
a(I2178
F0.07973314253204271
tp2302
a(I1901
F0.07983298666707171
tp2303
a(I728
F0.07989117244810101
tp2304
a(I2121
F0.08000778643841583
tp2305
a(I1518
F0.08018981227970524
tp2306
a(I1203
F0.08039056358793935
tp2307
a(I1408
F0.08044187195806507
tp2308
a(I1486
F0.08048934399811149
tp2309
a(I1853
F0.08058313549712547
tp2310
a(I3631
F0.08066773179381652
tp2311
a(I1282
F0.08067951923554398
tp2312
a(I1690
F0.0808052536508575
tp2313
a(I1265
F0.08082828988119257
tp2314
a(I2084
F0.08095141857542615
tp2315
a(I2419
F0.08115546460878535
tp2316
a(I2090
F0.0811643755595454
tp2317
a(I2592
F0.08118586382850808
tp2318
a(I2594
F0.08125620994570662
tp2319
a(I3057
F0.08136268529006618
tp2320
a(I1031
F0.08149423982372483
tp2321
a(I415
F0.08160267525077049
tp2322
a(I869
F0.08170469662563877
tp2323
a(I1331
F0.08171395087436756
tp2324
a(I3065
F0.08174296831422694
tp2325
a(I1239
F0.0818348933750898
tp2326
a(I2617
F0.08198420440096667
tp2327
a(I3171
F0.08207122764655755
tp2328
a(I2961
F0.08208026402822628
tp2329
a(I2493
F0.08215273205981957
tp2330
a(I1694
F0.0821534882395037
tp2331
a(I2366
F0.0822179126927383
tp2332
a(I2605
F0.08251269450257896
tp2333
a(I1678
F0.08283682438909704
tp2334
a(I1278
F0.08285702301486021
tp2335
a(I2164
F0.08296301206156363
tp2336
a(I1458
F0.08298549916332028
tp2337
a(I2838
F0.08321122260690637
tp2338
a(I1463
F0.08336319020534362
tp2339
a(I2214
F0.08389805712079774
tp2340
a(I1418
F0.08398953970745887
tp2341
a(I2697
F0.08401926547952959
tp2342
a(I2940
F0.08416226404866517
tp2343
a(I1810
F0.08424054781364096
tp2344
a(I2597
F0.08434512595339752
tp2345
a(I1257
F0.0843853618171227
tp2346
a(I1170
F0.08441515190421509
tp2347
a(I2334
F0.08491838038009825
tp2348
a(I3093
F0.08504983950106523
tp2349
a(I1632
F0.08512877949870706
tp2350
a(I2228
F0.0851551816075946
tp2351
a(I359
F0.08535629059009966
tp2352
a(I2034
F0.08537083643568102
tp2353
a(I2319
F0.08546076537958963
tp2354
a(I2489
F0.08566623247226018
tp2355
a(I2297
F0.08586382925418938
tp2356
a(I3173
F0.08603373475610021
tp2357
a(I1219
F0.08605786676327917
tp2358
a(I1342
F0.08610367502830239
tp2359
a(I1336
F0.08610386004914562
tp2360
a(I2750
F0.08616486540841202
tp2361
a(I3048
F0.08617640018802668
tp2362
a(I3132
F0.0862196733807599
tp2363
a(I1087
F0.08628074102963879
tp2364
a(I1746
F0.08628523261442976
tp2365
a(I2666
F0.0863331735729516
tp2366
a(I1511
F0.08638895449205525
tp2367
a(I1451
F0.08645175950165417
tp2368
a(I271
F0.08660825160448005
tp2369
a(I1773
F0.08685843742446574
tp2370
a(I3179
F0.08711098421277219
tp2371
a(I2457
F0.08717941716523206
tp2372
a(I2428
F0.08759134035337256
tp2373
a(I1626
F0.08761506824974244
tp2374
a(I2027
F0.08804464164600302
tp2375
a(I1479
F0.0882155595604799
tp2376
a(I2815
F0.08826874608501241
tp2377
a(I1862
F0.0882947350158706
tp2378
a(I1030
F0.08833358848254723
tp2379
a(I2871
F0.08882386294840938
tp2380
a(I1179
F0.08883332603454792
tp2381
a(I2123
F0.08895844471721985
tp2382
a(I840
F0.08896731592525772
tp2383
a(I2254
F0.08900266346080098
tp2384
a(I681
F0.0891315371167371
tp2385
a(I2567
F0.08913680833890854
tp2386
a(I1841
F0.08934171197949387
tp2387
a(I2682
F0.08934375479789387
tp2388
a(I1706
F0.08944101544641318
tp2389
a(I2841
F0.08954371042151509
tp2390
a(I1828
F0.08971816218535236
tp2391
a(I1025
F0.0897387314819474
tp2392
a(I1869
F0.08977599791016239
tp2393
a(I1130
F0.08993839598014813
tp2394
a(I1624
F0.09001310335345117
tp2395
a(I2640
F0.0900199627034373
tp2396
a(I316
F0.09003732909500389
tp2397
a(I3050
F0.09014142113463929
tp2398
a(I392
F0.09045568363859041
tp2399
a(I1028
F0.09056660322612094
tp2400
a(I1356
F0.09062137071625806
tp2401
a(I2455
F0.09087554008725189
tp2402
a(I3096
F0.09110217569048322
tp2403
a(I1413
F0.09115290962628247
tp2404
a(I982
F0.09157868608044242
tp2405
a(I1934
F0.09209021650281435
tp2406
a(I2174
F0.09212154729662102
tp2407
a(I1019
F0.0921403299426624
tp2408
a(I2895
F0.09216825309087986
tp2409
a(I1067
F0.09219394643153836
tp2410
a(I1132
F0.09222657925669142
tp2411
a(I3102
F0.09237546906790711
tp2412
a(I2827
F0.09240749286539379
tp2413
a(I1726
F0.09244575522347076
tp2414
a(I1633
F0.09249967574464364
tp2415
a(I2732
F0.092574641602673
tp2416
a(I2816
F0.09261452403647803
tp2417
a(I1709
F0.09285834331468694
tp2418
a(I2769
F0.09302894261822853
tp2419
a(I1868
F0.09306740778183208
tp2420
a(I1141
F0.09315993595666551
tp2421
a(I2606
F0.09325361932507938
tp2422
a(I1419
F0.09358683000405497
tp2423
a(I1234
F0.09372564399576407
tp2424
a(I1878
F0.09379383171872267
tp2425
a(I3632
F0.09387474078591311
tp2426
a(I979
F0.09392376154606279
tp2427
a(I2645
F0.09400281384311808
tp2428
a(I2051
F0.09400392834321887
tp2429
a(I2629
F0.09430638704399241
tp2430
a(I1803
F0.0943360645355356
tp2431
a(I2125
F0.09434888480343516
tp2432
a(I2157
F0.09460352945794226
tp2433
a(I2451
F0.09473511890750266
tp2434
a(I2811
F0.09487842682388396
tp2435
a(I2239
F0.09488170876612753
tp2436
a(I260
F0.09501657759338032
tp2437
a(I891
F0.0952557791483888
tp2438
a(I2250
F0.09527809476898552
tp2439
a(I1151
F0.0953832159273971
tp2440
a(I2649
F0.09539573188416779
tp2441
a(I1416
F0.09570199877712761
tp2442
a(I1250
F0.09581842492371066
tp2443
a(I1378
F0.09584162777184517
tp2444
a(I2766
F0.09595047258873651
tp2445
a(I2900
F0.09603351249650734
tp2446
a(I1095
F0.09607662425929515
tp2447
a(I1212
F0.09632237663403265
tp2448
a(I1783
F0.09632500134806841
tp2449
a(I2271
F0.09640799509323518
tp2450
a(I2722
F0.09642610047916739
tp2451
a(I2930
F0.09643315218658599
tp2452
a(I2215
F0.09676389761705427
tp2453
a(I3006
F0.0967911835128825
tp2454
a(I2814
F0.09689197831333263
tp2455
a(I2540
F0.09700884844504969
tp2456
a(I3040
F0.09721765509749962
tp2457
a(I865
F0.09730302744142146
tp2458
a(I1904
F0.09750244144323553
tp2459
a(I2899
F0.0976770568877383
tp2460
a(I2206
F0.09768216143355647
tp2461
a(I564
F0.09784899856270383
tp2462
a(I1898
F0.0979306738553761
tp2463
a(I2639
F0.0981111440664573
tp2464
a(I1020
F0.09837750542619218
tp2465
a(I2989
F0.09883244058217329
tp2466
a(I1283
F0.09908239597017064
tp2467
a(I2138
F0.09913447774392037
tp2468
a(I2603
F0.09917978830381786
tp2469
a(I2797
F0.09947167462019614
tp2470
a(I3141
F0.09950026663874574
tp2471
a(I2538
F0.09964359102236454
tp2472
a(I2338
F0.09972764140472815
tp2473
a(I682
F0.09984142172241792
tp2474
a(I1814
F0.0998587608158639
tp2475
a(I1990
F0.09997512451525233
tp2476
a(I2211
F0.10020348066162207
tp2477
a(I2396
F0.10025218278707859
tp2478
a(I2659
F0.10032019027071559
tp2479
a(I2284
F0.10052584436447361
tp2480
a(I685
F0.1005978164290835
tp2481
a(I1139
F0.10064790127517431
tp2482
a(I250
F0.1007690606053605
tp2483
a(I1251
F0.10076925026446062
tp2484
a(I1459
F0.10078280268038294
tp2485
a(I2016
F0.10093439401632161
tp2486
a(I2229
F0.10100470288961247
tp2487
a(I1671
F0.10132483291131325
tp2488
a(I2217
F0.10139330343376832
tp2489
a(I1137
F0.10139451391605246
tp2490
a(I249
F0.10140810396803553
tp2491
a(I2033
F0.10155828812379526
tp2492
a(I2495
F0.10183333057764936
tp2493
a(I3650
F0.10217100536997398
tp2494
a(I2658
F0.10225445564282638
tp2495
a(I2528
F0.10233356747142854
tp2496
a(I1989
F0.10238124019178765
tp2497
a(I1184
F0.10239043257466002
tp2498
a(I1525
F0.1024353890389341
tp2499
a(I1436
F0.10248973609536131
tp2500
a(I1818
F0.10260452407331992
tp2501
a(I3103
F0.10294225647745248
tp2502
a(I1723
F0.10295131057503389
tp2503
a(I1820
F0.10303401275197277
tp2504
a(I878
F0.10339295429657634
tp2505
a(I1377
F0.10354265855357372
tp2506
a(I1685
F0.10370774883867033
tp2507
a(I2832
F0.10378216092041424
tp2508
a(I644
F0.10392826886758103
tp2509
a(I2306
F0.10398346573266759
tp2510
a(I1664
F0.10431788542854632
tp2511
a(I2287
F0.1043771343111576
tp2512
a(I1018
F0.10445073517593177
tp2513
a(I2140
F0.10478817535260744
tp2514
a(I1724
F0.10484465532892381
tp2515
a(I2279
F0.10485780424710807
tp2516
a(I2628
F0.10513212580191383
tp2517
a(I2011
F0.10537058329845572
tp2518
a(I1907
F0.10547488925795463
tp2519
a(I2208
F0.1055521177558162
tp2520
a(I3161
F0.10557358902736937
tp2521
a(I3184
F0.10557575262332129
tp2522
a(I2003
F0.10563004965711134
tp2523
a(I2272
F0.10593279166695393
tp2524
a(I3003
F0.10601820345506816
tp2525
a(I683
F0.10614973840667033
tp2526
a(I1457
F0.10625533557699819
tp2527
a(I2173
F0.10635605372943965
tp2528
a(I1744
F0.10636207249173221
tp2529
a(I2199
F0.10678780286678463
tp2530
a(I2336
F0.10679040068251965
tp2531
a(I1092
F0.10686918120913841
tp2532
a(I2969
F0.1070698532790974
tp2533
a(I2462
F0.10714584776814066
tp2534
a(I3186
F0.1072466735989034
tp2535
a(I993
F0.10733105495590735
tp2536
a(I1402
F0.10740777088953328
tp2537
a(I432
F0.10746559000927916
tp2538
a(I908
F0.10759196408993316
tp2539
a(I1045
F0.10775865591253811
tp2540
a(I2634
F0.10805403626857714
tp2541
a(I2922
F0.1080720882380106
tp2542
a(I718
F0.10824246177195287
tp2543
a(I1376
F0.10836711153836692
tp2544
a(I303
F0.10873267394651359
tp2545
a(I1244
F0.10873360337776067
tp2546
a(I2662
F0.10882188199114062
tp2547
a(I2552
F0.10893152017953803
tp2548
a(I2347
F0.10894198601371968
tp2549
a(I1309
F0.10903652604994128
tp2550
a(I941
F0.10920202747313211
tp2551
a(I1206
F0.10951834594829656
tp2552
a(I1295
F0.109912309149275
tp2553
a(I577
F0.11016108394824911
tp2554
a(I1686
F0.11030802862349523
tp2555
a(I2998
F0.11046505443413696
tp2556
a(I3105
F0.11072627569711563
tp2557
a(I1742
F0.11077961841633062
tp2558
a(I1140
F0.11085070817883415
tp2559
a(I1390
F0.11088860183577351
tp2560
a(I1010
F0.11098172667215735
tp2561
a(I1747
F0.1113582727726856
tp2562
a(I1148
F0.11138586790896651
tp2563
a(I2958
F0.11159988006396282
tp2564
a(I1920
F0.11161566824637313
tp2565
a(I1484
F0.1116334902279305
tp2566
a(I1001
F0.11165202935838534
tp2567
a(I2295
F0.11174090682222196
tp2568
a(I1670
F0.11185149043383176
tp2569
a(I2082
F0.11193276207639075
tp2570
a(I1109
F0.11213676426553076
tp2571
a(I1429
F0.11218983117869653
tp2572
a(I2601
F0.11230505123768798
tp2573
a(I1033
F0.11234743314635706
tp2574
a(I1374
F0.11250160709384771
tp2575
a(I1590
F0.11296629015517726
tp2576
a(I2315
F0.11316081215495188
tp2577
a(I1290
F0.11323450587114428
tp2578
a(I2190
F0.11323654982664087
tp2579
a(I2470
F0.11323752796844869
tp2580
a(I2539
F0.113352204772561
tp2581
a(I2054
F0.11353147910388721
tp2582
a(I1711
F0.11357934809056011
tp2583
a(I2923
F0.11362509056892559
tp2584
a(I789
F0.11384825454404582
tp2585
a(I855
F0.11398257522856411
tp2586
a(I2706
F0.11399252390901972
tp2587
a(I2365
F0.1140369743835724
tp2588
a(I3148
F0.1141487849582704
tp2589
a(I2340
F0.11416802863750194
tp2590
a(I1066
F0.11445406585597195
tp2591
a(I2372
F0.11451088821387688
tp2592
a(I1312
F0.11463377466087936
tp2593
a(I1833
F0.11486079164917103
tp2594
a(I1344
F0.11486557367026959
tp2595
a(I3039
F0.11531964882631054
tp2596
a(I1698
F0.1153813118899215
tp2597
a(I725
F0.11540988484887471
tp2598
a(I1228
F0.1155867540064653
tp2599
a(I1235
F0.11595928628406584
tp2600
a(I960
F0.11601139414595504
tp2601
a(I2327
F0.11648830824815239
tp2602
a(I2562
F0.11659378987679617
tp2603
a(I549
F0.11662468033226318
tp2604
a(I1646
F0.11680146713519565
tp2605
a(I1088
F0.11734664069923141
tp2606
a(I2461
F0.11745668057189379
tp2607
a(I2765
F0.1178086112655083
tp2608
a(I2679
F0.11801224611080871
tp2609
a(I2294
F0.11807954303275654
tp2610
a(I2802
F0.11835903493084034
tp2611
a(I1223
F0.11839370522576574
tp2612
a(I2927
F0.1184709176515115
tp2613
a(I1702
F0.11847335021008905
tp2614
a(I1037
F0.11891971938278836
tp2615
a(I2929
F0.1189941996417771
tp2616
a(I1718
F0.11945918611153203
tp2617
a(I1716
F0.11948403327728835
tp2618
a(I1721
F0.11951239112678799
tp2619
a(I1661
F0.11963911626429213
tp2620
a(I816
F0.11965891967485946
tp2621
a(I2177
F0.12003380648361764
tp2622
a(I1700
F0.12032422316844411
tp2623
a(I1482
F0.12074518097124362
tp2624
a(I3091
F0.12142005410389257
tp2625
a(I1931
F0.12182646483241433
tp2626
a(I2987
F0.12201202642220405
tp2627
a(I2480
F0.12223982167068713
tp2628
a(I1476
F0.1223721226162114
tp2629
a(I1324
F0.12245817710476117
tp2630
a(I2483
F0.12263156747779995
tp2631
a(I2105
F0.12265639273534316
tp2632
a(I1096
F0.12272926007340663
tp2633
a(I1526
F0.12280103295196104
tp2634
a(I2290
F0.12291255876127766
tp2635
a(I2627
F0.12295255631180103
tp2636
a(I2790
F0.1231031041583277
tp2637
a(I2919
F0.12312547349762624
tp2638
a(I2715
F0.12320512598128927
tp2639
a(I2801
F0.12329292676892857
tp2640
a(I2924
F0.12329585666792406
tp2641
a(I2047
F0.12400048484652806
tp2642
a(I1761
F0.12416640625251538
tp2643
a(I3112
F0.1241710913202261
tp2644
a(I2339
F0.1244715356909096
tp2645
a(I1117
F0.12496840149567139
tp2646
a(I2276
F0.12497787614608777
tp2647
a(I2161
F0.1250663849470362
tp2648
a(I1701
F0.12517442558513128
tp2649
a(I787
F0.125681605970653
tp2650
a(I2045
F0.12570238461045524
tp2651
a(I2687
F0.1258168470851392
tp2652
a(I1164
F0.12605069879217728
tp2653
a(I2675
F0.1262707899860605
tp2654
a(I2299
F0.12660816208186387
tp2655
a(I2401
F0.12670761217619078
tp2656
a(I1864
F0.12676337632295526
tp2657
a(I2689
F0.12676578717917825
tp2658
a(I304
F0.12681185294123296
tp2659
a(I905
F0.12706136145911873
tp2660
a(I2112
F0.127104862775878
tp2661
a(I896
F0.1272181497880259
tp2662
a(I988
F0.1274094075071342
tp2663
a(I2358
F0.12770757296926188
tp2664
a(I1150
F0.1278640972387203
tp2665
a(I2385
F0.12835633571460897
tp2666
a(I1081
F0.1287316960996454
tp2667
a(I486
F0.12885074459685691
tp2668
a(I2503
F0.129062248343881
tp2669
a(I1085
F0.12989851200363428
tp2670
a(I1248
F0.12994243244135859
tp2671
a(I1052
F0.13004191179481078
tp2672
a(I3168
F0.13030342140308038
tp2673
a(I1094
F0.13114224988725093
tp2674
a(I1000
F0.13133644977909129
tp2675
a(I2698
F0.13155053227782257
tp2676
a(I1844
F0.13163556520198733
tp2677
a(I1302
F0.13181693550796136
tp2678
a(I2749
F0.13191568037539045
tp2679
a(I2602
F0.13203332819332472
tp2680
a(I2985
F0.13240259375670094
tp2681
a(I2400
F0.13250964722203726
tp2682
a(I1276
F0.13279474094599913
tp2683
a(I2413
F0.13303235619947426
tp2684
a(I815
F0.13309547983895842
tp2685
a(I1798
F0.1331799150794379
tp2686
a(I769
F0.1336176457304535
tp2687
a(I1205
F0.13404229218932037
tp2688
a(I1994
F0.13441603112801895
tp2689
a(I1104
F0.13446382728056594
tp2690
a(I1310
F0.13454765927179327
tp2691
a(I2020
F0.1345839363566816
tp2692
a(I2784
F0.13463840320728185
tp2693
a(I2591
F0.1348897401979413
tp2694
a(I963
F0.13490671781578353
tp2695
a(I330
F0.1349288639539268
tp2696
a(I1395
F0.13497371382987727
tp2697
a(I2896
F0.13504944430943666
tp2698
a(I1412
F0.13521450167485444
tp2699
a(I1933
F0.13540563351032286
tp2700
a(I2894
F0.13587212249054018
tp2701
a(I2839
F0.13593555732718257
tp2702
a(I1756
F0.13620498900076947
tp2703
a(I1453
F0.13621880177786275
tp2704
a(I1185
F0.13643709975998894
tp2705
a(I2488
F0.1365067591904109
tp2706
a(I2124
F0.13679181691658818
tp2707
a(I1786
F0.1369572533553259
tp2708
a(I1954
F0.13696513848711916
tp2709
a(I2865
F0.13697427391628458
tp2710
a(I939
F0.13703391720836372
tp2711
a(I2788
F0.1370821408552615
tp2712
a(I921
F0.13741722130632297
tp2713
a(I2943
F0.1374233250830176
tp2714
a(I497
F0.1379996474862293
tp2715
a(I2803
F0.13875980862382545
tp2716
a(I2450
F0.1388823895276867
tp2717
a(I1884
F0.13889206296613568
tp2718
a(I904
F0.1391663691420953
tp2719
a(I859
F0.13923494405408604
tp2720
a(I2535
F0.13923747432691466
tp2721
a(I2403
F0.13928845591735134
tp2722
a(I1975
F0.1397364118280426
tp2723
a(I2286
F0.13984106692991277
tp2724
a(I3095
F0.14031921430567493
tp2725
a(I3090
F0.14041125441844807
tp2726
a(I1871
F0.14056904979860899
tp2727
a(I2724
F0.1409133899557467
tp2728
a(I658
F0.14158990169826877
tp2729
a(I3035
F0.1415937420390438
tp2730
a(I2685
F0.1416010822291654
tp2731
a(I1731
F0.14162870754803647
tp2732
a(I1763
F0.1418527492120129
tp2733
a(I481
F0.14205443362809594
tp2734
a(I1654
F0.14207289377034157
tp2735
a(I1353
F0.1421511573674289
tp2736
a(I2154
F0.1421643375238748
tp2737
a(I3653
F0.14219302419494192
tp2738
a(I2735
F0.14228000374498356
tp2739
a(I2941
F0.14255767023620472
tp2740
a(I2030
F0.14257434426292825
tp2741
a(I930
F0.1426222813518834
tp2742
a(I987
F0.14263617025671632
tp2743
a(I1936
F0.14267705892202787
tp2744
a(I1442
F0.14296946739115474
tp2745
a(I677
F0.14317092982294857
tp2746
a(I2771
F0.14332154681836554
tp2747
a(I2404
F0.14359113397104026
tp2748
a(I1487
F0.14372103168345862
tp2749
a(I2504
F0.14382289705659285
tp2750
a(I3036
F0.14382356511642333
tp2751
a(I2102
F0.14404286102987146
tp2752
a(I2335
F0.14406128812984056
tp2753
a(I2010
F0.14434618376057246
tp2754
a(I2813
F0.14481870222844165
tp2755
a(I2023
F0.14495075613835245
tp2756
a(I2534
F0.14507106475389298
tp2757
a(I1811
F0.14510830887538903
tp2758
a(I1343
F0.1452336812047699
tp2759
a(I782
F0.1452651715557086
tp2760
a(I3011
F0.14586539637357876
tp2761
a(I2988
F0.14615398919048805
tp2762
a(I2515
F0.146162959110523
tp2763
a(I2954
F0.1462097316647352
tp2764
a(I1112
F0.14629360389503754
tp2765
a(I1174
F0.146454430796946
tp2766
a(I3123
F0.1467471988831779
tp2767
a(I841
F0.14678337449663187
tp2768
a(I2354
F0.14752367852639092
tp2769
a(I2146
F0.14768226541598242
tp2770
a(I2805
F0.1480428152061169
tp2771
a(I1327
F0.14829322430076602
tp2772
a(I2791
F0.14866738384763897
tp2773
a(I2611
F0.1491377694058044
tp2774
a(I1924
F0.14917203490784647
tp2775
a(I1103
F0.14918517571789194
tp2776
a(I2026
F0.14924529924566626
tp2777
a(I2022
F0.14926446720191447
tp2778
a(I1495
F0.15028437207931197
tp2779
a(I1774
F0.15162783778908692
tp2780
a(I2779
F0.15165336302877253
tp2781
a(I2665
F0.15184770294088898
tp2782
a(I2000
F0.15185104245640574
tp2783
a(I1024
F0.152241421667662
tp2784
a(I1595
F0.15293179064211684
tp2785
a(I462
F0.1530315362810812
tp2786
a(I1202
F0.15319171766665854
tp2787
a(I2440
F0.15323597164374717
tp2788
a(I1777
F0.15335147526321277
tp2789
a(I2577
F0.15337713099512063
tp2790
a(I1470
F0.15348589267998503
tp2791
a(I1838
F0.15364979934624104
tp2792
a(I2384
F0.15381377618723993
tp2793
a(I2337
F0.15429092866182004
tp2794
a(I2955
F0.15434273789008393
tp2795
a(I2575
F0.15444309756166458
tp2796
a(I1385
F0.15466483323298602
tp2797
a(I1912
F0.15475540902476773
tp2798
a(I972
F0.1549733103226973
tp2799
a(I2053
F0.1551371945963813
tp2800
a(I1468
F0.15538169009410918
tp2801
a(I1741
F0.15579607563385633
tp2802
a(I2042
F0.156403953857503
tp2803
a(I1743
F0.1565541684990885
tp2804
a(I2499
F0.1568464130586926
tp2805
a(I3000
F0.15692764837429493
tp2806
a(I1379
F0.1569709661071848
tp2807
a(I2238
F0.1571051199570176
tp2808
a(I2204
F0.15746036771688215
tp2809
a(I1804
F0.15747884113521116
tp2810
a(I454
F0.15789888827859871
tp2811
a(I906
F0.1580897777483568
tp2812
a(I1882
F0.15828824145215598
tp2813
a(I3087
F0.15861992130029895
tp2814
a(I2973
F0.15871100123460619
tp2815
a(I1014
F0.15902107116300426
tp2816
a(I2103
F0.1594403288069484
tp2817
a(I364
F0.15950549526100052
tp2818
a(I661
F0.15964114380234504
tp2819
a(I2755
F0.1596831904622805
tp2820
a(I2818
F0.15981629595838306
tp2821
a(I1015
F0.15992214146013703
tp2822
a(I2939
F0.15995088231669305
tp2823
a(I155
F0.15998609604770817
tp2824
a(I3654
F0.1600544855156784
tp2825
a(I1270
F0.16007199130074773
tp2826
a(I2553
F0.16017251595327123
tp2827
a(I1659
F0.16096752294838243
tp2828
a(I2092
F0.16103230096576748
tp2829
a(I2137
F0.16168952991089872
tp2830
a(I3100
F0.1617307950286415
tp2831
a(I3174
F0.16207424039141136
tp2832
a(I2482
F0.16235865013779
tp2833
a(I1660
F0.1625613779182166
tp2834
a(I1294
F0.1630144781656881
tp2835
a(I508
F0.1632621895809949
tp2836
a(I1200
F0.1635576169456512
tp2837
a(I2726
F0.1636154701432671
tp2838
a(I629
F0.1640968134782559
tp2839
a(I975
F0.16417160077754775
tp2840
a(I2463
F0.1643227833584447
tp2841
a(I2418
F0.16542882239654044
tp2842
a(I2345
F0.16577674470531
tp2843
a(I2029
F0.16653132522058584
tp2844
a(I2931
F0.16676008345467025
tp2845
a(I1061
F0.1669188093071943
tp2846
a(I2262
F0.16747166171554442
tp2847
a(I2882
F0.16830587380576045
tp2848
a(I534
F0.16846046153675162
tp2849
a(I882
F0.1691072113963638
tp2850
a(I26
F0.16932183383072805
tp2851
a(I1135
F0.16945570761757242
tp2852
a(I1754
F0.1701892863605853
tp2853
a(I2368
F0.1705415261679093
tp2854
a(I2049
F0.17054890329770545
tp2855
a(I2905
F0.1708216401896128
tp2856
a(I3022
F0.17083592616761703
tp2857
a(I3146
F0.17128854373578112
tp2858
a(I2725
F0.17161173883529687
tp2859
a(I729
F0.1729292053035587
tp2860
a(I333
F0.17305566933852787
tp2861
a(I1905
F0.17356752922345023
tp2862
a(I300
F0.17380662029121688
tp2863
a(I447
F0.1739219479217151
tp2864
a(I2129
F0.173941978657245
tp2865
a(I2648
F0.17436988130848063
tp2866
a(I715
F0.1747292585660811
tp2867
a(I2948
F0.17476793318367606
tp2868
a(I1799
F0.1750890381595647
tp2869
a(I2477
F0.1753395419706245
tp2870
a(I2235
F0.1753433741376928
tp2871
a(I2913
F0.1755959445613357
tp2872
a(I2906
F0.17577196505269596
tp2873
a(I3108
F0.1770426364960293
tp2874
a(I1873
F0.1770468742841077
tp2875
a(I2158
F0.17717723314631473
tp2876
a(I1805
F0.17726395279896678
tp2877
a(I2241
F0.1773139576975757
tp2878
a(I1432
F0.1774165431562487
tp2879
a(I1717
F0.1779232968181358
tp2880
a(I1749
F0.17836785093352187
tp2881
a(I2928
F0.17837677044988154
tp2882
a(I732
F0.17840253010935636
tp2883
a(I2520
F0.1788127783699337
tp2884
a(I926
F0.1791336310750062
tp2885
a(I3652
F0.1795914916696336
tp2886
a(I3099
F0.17959331299298384
tp2887
a(I918
F0.1796466272264532
tp2888
a(I761
F0.18018159775290918
tp2889
a(I2937
F0.18047582617760557
tp2890
a(I2126
F0.1808351923219744
tp2891
a(I2200
F0.1810385058547766
tp2892
a(I1895
F0.18121688096346072
tp2893
a(I1995
F0.1813912191256846
tp2894
a(I2312
F0.18202705007669812
tp2895
a(I2657
F0.18230010772603045
tp2896
a(I825
F0.1826074918204339
tp2897
a(I1849
F0.18267816104828347
tp2898
a(I2759
F0.1836294713072386
tp2899
a(I2301
F0.18449565772038085
tp2900
a(I2328
F0.18466098251569843
tp2901
a(I2136
F0.18578114739108922
tp2902
a(I1063
F0.18595722847430013
tp2903
a(I3081
F0.1860263638196221
tp2904
a(I1908
F0.1866435392234719
tp2905
a(I868
F0.18709951166095118
tp2906
a(I2965
F0.1876851889506217
tp2907
a(I1658
F0.18782392825317437
tp2908
a(I1998
F0.18785190698076662
tp2909
a(I2977
F0.18815702364552897
tp2910
a(I2131
F0.1888093202812397
tp2911
a(I1916
F0.1890071175785915
tp2912
a(I2642
F0.18932483224894112
tp2913
a(I2181
F0.19052520601916975
tp2914
a(I2812
F0.19085682766532766
tp2915
a(I528
F0.19101214493668625
tp2916
a(I2646
F0.19138605206740808
tp2917
a(I1822
F0.19151550362477024
tp2918
a(I2205
F0.19232971702960902
tp2919
a(I2588
F0.19249789203336493
tp2920
a(I1298
F0.1925348979898377
tp2921
a(I2610
F0.19294114963859973
tp2922
a(I1778
F0.19306744459964736
tp2923
a(I1217
F0.1932676020177898
tp2924
a(I2009
F0.19335306450368478
tp2925
a(I3106
F0.19366124619407735
tp2926
a(I394
F0.1936618568065095
tp2927
a(I1956
F0.1951680272855361
tp2928
a(I819
F0.19596352705988512
tp2929
a(I1787
F0.19736874250330272
tp2930
a(I991
F0.19743912761680052
tp2931
a(I2728
F0.1978489607146653
tp2932
a(I3034
F0.19787167333516895
tp2933
a(I1940
F0.19809464874532196
tp2934
a(I3043
F0.19854621761536248
tp2935
a(I2959
F0.19880134111410075
tp2936
a(I3079
F0.19906026631397739
tp2937
a(I2587
F0.1991975871905389
tp2938
a(I2741
F0.19936091705257414
tp2939
a(I2240
F0.19945778790004928
tp2940
a(I2263
F0.19981544086445355
tp2941
a(I2999
F0.19988536833569293
tp2942
a(I2225
F0.20018159873281952
tp2943
a(I897
F0.20031246719062668
tp2944
a(I2753
F0.20060555266387498
tp2945
a(I2975
F0.20062871797136095
tp2946
a(I2607
F0.20113953433820198
tp2947
a(I935
F0.2019322736396879
tp2948
a(I331
F0.20210153163000266
tp2949
a(I2185
F0.2021052547235604
tp2950
a(I766
F0.2021902576150554
tp2951
a(I3059
F0.2022694834813369
tp2952
a(I3049
F0.20367406111340305
tp2953
a(I937
F0.20368192700816914
tp2954
a(I1652
F0.20369093699006216
tp2955
a(I1921
F0.20369793842369258
tp2956
a(I194
F0.2038638277958401
tp2957
a(I2957
F0.20391391915765342
tp2958
a(I1759
F0.20447298047450022
tp2959
a(I2870
F0.20518103850139255
tp2960
a(I954
F0.20575055892119545
tp2961
a(I1644
F0.2064699569922773
tp2962
a(I2195
F0.20655469205748622
tp2963
a(I2441
F0.20702989044031284
tp2964
a(I2949
F0.20741933163547657
tp2965
a(I1246
F0.20819708783660745
tp2966
a(I1079
F0.20820361858147907
tp2967
a(I2944
F0.2083432491409228
tp2968
a(I1885
F0.2085059329349854
tp2969
a(I2012
F0.2085063770155064
tp2970
a(I1034
F0.20992425900498962
tp2971
a(I302
F0.21084829178793527
tp2972
a(I1493
F0.21126477626136034
tp2973
a(I2566
F0.2113957223596431
tp2974
a(I2704
F0.21159938803588993
tp2975
a(I2348
F0.21183150132363818
tp2976
a(I3080
F0.21224247915035133
tp2977
a(I1318
F0.2122558254366353
tp2978
a(I2893
F0.21239814351201358
tp2979
a(I2004
F0.2136351982402413
tp2980
a(I3061
F0.213720218366994
tp2981
a(I1817
F0.21414453074720022
tp2982
a(I2761
F0.21424369225011353
tp2983
a(I1847
F0.2147161098633102
tp2984
a(I3045
F0.21557342303404103
tp2985
a(I2574
F0.21592968120775125
tp2986
a(I1961
F0.21611275935693405
tp2987
a(I3051
F0.21676905493507992
tp2988
a(I1277
F0.217641076841336
tp2989
a(I2721
F0.21820721432352813
tp2990
a(I2951
F0.21827507605815602
tp2991
a(I3644
F0.2185933469119182
tp2992
a(I3151
F0.2212483363385532
tp2993
a(I2966
F0.2214227280965192
tp2994
a(I689
F0.22315701898699888
tp2995
a(I1220
F0.22385853277213053
tp2996
a(I3098
F0.2239218035636344
tp2997
a(I1082
F0.22415485470509722
tp2998
a(I1876
F0.2242837662272172
tp2999
a(I1454
F0.22509542890487802
tp3000
a(I531
F0.22593935500582701
tp3001
a(I2824
F0.226352267972807
tp3002
a(I2599
F0.22660157064167263
tp3003
a(I2598
F0.22684990488171725
tp3004
a(I1337
F0.22706040662153218
tp3005
a(I2444
F0.2270670695324237
tp3006
a(I1411
F0.22727362603336834
tp3007
a(I3655
F0.22772880589427644
tp3008
a(I1187
F0.22773763566764085
tp3009
a(I2331
F0.22905263789969194
tp3010
a(I1903
F0.22963498260305965
tp3011
a(I2644
F0.23011317256817573
tp3012
a(I2458
F0.23061411645321048
tp3013
a(I2792
F0.23124129098422805
tp3014
a(I2035
F0.23311633464624448
tp3015
a(I1681
F0.2336613474745059
tp3016
a(I2438
F0.23367136634749244
tp3017
a(I1328
F0.23394412052680855
tp3018
a(I2192
F0.23395582531242273
tp3019
a(I468
F0.234601758435695
tp3020
a(I1641
F0.23558002020972427
tp3021
a(I1708
F0.23646258777445506
tp3022
a(I1695
F0.2366759502367961
tp3023
a(I2972
F0.23695615555086982
tp3024
a(I2565
F0.23774228990601276
tp3025
a(I1667
F0.23823885706360498
tp3026
a(I2075
F0.23839043177722788
tp3027
a(I2935
F0.2401247656105259
tp3028
a(I2541
F0.2405477741428519
tp3029
a(I1930
F0.24173833763359726
tp3030
a(I722
F0.2419000638076522
tp3031
a(I1991
F0.24225413814230973
tp3032
a(I2760
F0.24334846538146604
tp3033
a(I2283
F0.24336684793473976
tp3034
a(I2291
F0.2437628916578233
tp3035
a(I2739
F0.2445502333121451
tp3036
a(I2892
F0.24473105092312272
tp3037
a(I1176
F0.24506137907759554
tp3038
a(I2668
F0.24513857656462776
tp3039
a(I1494
F0.24516383776695155
tp3040
a(I1097
F0.2454515609505599
tp3041
a(I1304
F0.24565591058467254
tp3042
a(I842
F0.24578372143192265
tp3043
a(I2615
F0.2461592130851748
tp3044
a(I999
F0.24626194943655003
tp3045
a(I2557
F0.24844434961793777
tp3046
a(I876
F0.2485041073516229
tp3047
a(I2863
F0.24872947227218467
tp3048
a(I1204
F0.2493630169852175
tp3049
a(I2316
F0.2502389451528006
tp3050
a(I3055
F0.25025214705984167
tp3051
a(I397
F0.25037048979249377
tp3052
a(I2547
F0.25172436139289095
tp3053
a(I1729
F0.2537325849270159
tp3054
a(I2945
F0.2546199602015642
tp3055
a(I2510
F0.2550966274727201
tp3056
a(I2037
F0.25586070434483754
tp3057
a(I599
F0.25601273638599975
tp3058
a(I1962
F0.25686214733872414
tp3059
a(I2559
F0.2574526086092029
tp3060
a(I2903
F0.2580380917210807
tp3061
a(I1231
F0.2585242568830914
tp3062
a(I2359
F0.26055256921974496
tp3063
a(I1496
F0.26093881908846217
tp3064
a(I1643
F0.26170477288794375
tp3065
a(I959
F0.2617582331863737
tp3066
a(I1357
F0.2626627884740245
tp3067
a(I2586
F0.26291609377882325
tp3068
a(I2964
F0.2631450298147798
tp3069
a(I813
F0.26417801009416947
tp3070
a(I457
F0.2643609390233743
tp3071
a(I2464
F0.26677019208789204
tp3072
a(I1275
F0.2669968595952635
tp3073
a(I811
F0.26700659668639687
tp3074
a(I3033
F0.2675680587748803
tp3075
a(I2346
F0.2678093248533775
tp3076
a(I2386
F0.26805362871395616
tp3077
a(I1850
F0.2681920513221396
tp3078
a(I1334
F0.2683547749191709
tp3079
a(I2920
F0.26879466844042166
tp3080
a(I1210
F0.2692919826284004
tp3081
a(I2711
F0.26941634459932456
tp3082
a(I3037
F0.27110643540049506
tp3083
a(I172
F0.2716702035877976
tp3084
a(I2672
F0.27199664387501904
tp3085
a(I875
F0.27273115354741545
tp3086
a(I2046
F0.27332978269000346
tp3087
a(I2234
F0.27483578210861426
tp3088
a(I2710
F0.2755869691747915
tp3089
a(I1225
F0.27657940990766794
tp3090
a(I2752
F0.2770724171369015
tp3091
a(I1969
F0.2776207377566952
tp3092
a(I2703
F0.2781077221954206
tp3093
a(I1241
F0.2782371143250904
tp3094
a(I2793
F0.2796117384697401
tp3095
a(I1953
F0.27962952536326585
tp3096
a(I1407
F0.28064229552978487
tp3097
a(I1124
F0.2815745648170994
tp3098
a(I1386
F0.28531730234657354
tp3099
a(I2997
F0.2868814289752198
tp3100
a(I1177
F0.28694731427515646
tp3101
a(I2001
F0.28815676593414585
tp3102
a(I2321
F0.28819116891379576
tp3103
a(I1527
F0.28923764571009336
tp3104
a(I2886
F0.2917413415664242
tp3105
a(I1473
F0.291983512098592
tp3106
a(I3017
F0.29218639577744054
tp3107
a(I2836
F0.29251300727126245
tp3108
a(I2612
F0.2934494145967745
tp3109
a(I2364
F0.2942000547847706
tp3110
a(I1055
F0.2958368155033766
tp3111
a(I1155
F0.29733261711938547
tp3112
a(I2446
F0.2979178377812994
tp3113
a(I1588
F0.2988178417268521
tp3114
a(I1712
F0.2990003482124259
tp3115
a(I2991
F0.2990267313525343
tp3116
a(I2783
F0.29904243644963896
tp3117
a(I2091
F0.2994713995449663
tp3118
a(I2794
F0.29957697705699066
tp3119
a(I2970
F0.29985771119717736
tp3120
a(I1359
F0.30144433820533345
tp3121
a(I312
F0.3028016923222097
tp3122
a(I1958
F0.30566950012208444
tp3123
a(I2717
F0.3069408306048149
tp3124
a(I773
F0.30720772203222435
tp3125
a(I2142
F0.3085750589669269
tp3126
a(I1800
F0.30910876688462496
tp3127
a(I2723
F0.3100048360783948
tp3128
a(I597
F0.3132003190251993
tp3129
a(I2282
F0.3134825340469699
tp3130
a(I2104
F0.31464400425015676
tp3131
a(I1346
F0.3149989459260953
tp3132
a(I1870
F0.3152914295507542
tp3133
a(I363
F0.31530286185447065
tp3134
a(I2326
F0.3153698238583947
tp3135
a(I2840
F0.3185494365213975
tp3136
a(I2932
F0.320167659018916
tp3137
a(I2459
F0.3205955865507686
tp3138
a(I1668
F0.32176847471788955
tp3139
a(I2532
F0.3238024944607573
tp3140
a(I775
F0.3242127743200023
tp3141
a(I2595
F0.3242535893442253
tp3142
a(I2168
F0.32610404163083523
tp3143
a(I1987
F0.3265315184401211
tp3144
a(I2068
F0.3268340973933347
tp3145
a(I2006
F0.32763377670997273
tp3146
a(I2021
F0.3289397696467556
tp3147
a(I2409
F0.3311660484673517
tp3148
a(I2494
F0.33312328908343164
tp3149
a(I672
F0.33328759189652296
tp3150
a(I2069
F0.3335916182801699
tp3151
a(I1982
F0.33361972823136105
tp3152
a(I3016
F0.3341927077403809
tp3153
a(I2445
F0.334440406210901
tp3154
a(I3646
F0.3345950595118469
tp3155
a(I1490
F0.3355915150310415
tp3156
a(I3153
F0.3357626262938711
tp3157
a(I418
F0.3363270572436584
tp3158
a(I2782
F0.33673843639788514
tp3159
a(I474
F0.33719049668805556
tp3160
a(I1161
F0.33813691208439883
tp3161
a(I1152
F0.33869595166851585
tp3162
a(I1226
F0.3401587914364626
tp3163
a(I1370
F0.3405115899104315
tp3164
a(I2502
F0.34060638947317967
tp3165
a(I2650
F0.34099529383136923
tp3166
a(I1957
F0.3412160558085495
tp3167
a(I910
F0.3412319834567878
tp3168
a(I2669
F0.34168257602323876
tp3169
a(I1351
F0.3419994433448954
tp3170
a(I2596
F0.34223725225847973
tp3171
a(I1369
F0.3438873333932637
tp3172
a(I1455
F0.34435988478124674
tp3173
a(I2089
F0.34512064809738935
tp3174
a(I2298
F0.34536311370259093
tp3175
a(I2872
F0.34708068698789546
tp3176
a(I911
F0.34729916183326415
tp3177
a(I3053
F0.34882044239000665
tp3178
a(I2083
F0.3506822383320439
tp3179
a(I2746
F0.3511541588102244
tp3180
a(I2968
F0.3528549748177181
tp3181
a(I2590
F0.3534777224005053
tp3182
a(I1699
F0.3535670047406157
tp3183
a(I2653
F0.35372490753575025
tp3184
a(I2151
F0.35479167862605104
tp3185
a(I3648
F0.35676569464117125
tp3186
a(I2546
F0.3580987980464343
tp3187
a(I1387
F0.35924291156437704
tp3188
a(I2621
F0.3617060401837481
tp3189
a(I3636
F0.3624894169251579
tp3190
a(I2307
F0.3644108719606463
tp3191
a(I1319
F0.36461603134389514
tp3192
a(I2180
F0.36561410095649455
tp3193
a(I1762
F0.3660585752797105
tp3194
a(I2008
F0.3664631224124375
tp3195
a(I2781
F0.36729522214695
tp3196
a(I1734
F0.3677642141041164
tp3197
a(I2109
F0.3698052417744039
tp3198
a(I1477
F0.3705684867377799
tp3199
a(I1806
F0.3720238140606569
tp3200
a(I1902
F0.3720634721828908
tp3201
a(I3122
F0.37346752482899215
tp3202
a(I1464
F0.3755881188967576
tp3203
a(I2996
F0.3776276948856505
tp3204
a(I494
F0.3776782286849481
tp3205
a(I2313
F0.38133312183780266
tp3206
a(I1779
F0.38158676444741046
tp3207
a(I2667
F0.38208659685928337
tp3208
a(I2275
F0.3824967403938468
tp3209
a(I2713
F0.3826731359534387
tp3210
a(I2253
F0.3841792961644709
tp3211
a(I2571
F0.3841811447413662
tp3212
a(I3638
F0.3846844241415629
tp3213
a(I2654
F0.38526132421050696
tp3214
a(I1725
F0.3861904514737904
tp3215
a(I698
F0.38620331748521514
tp3216
a(I2015
F0.38623599241116313
tp3217
a(I2322
F0.38744755368078687
tp3218
a(I1320
F0.38785116802424513
tp3219
a(I2992
F0.3895227628124
tp3220
a(I1384
F0.3927443678848911
tp3221
a(I413
F0.3931315991431169
tp3222
a(I768
F0.3942314935885555
tp3223
a(I1785
F0.3945168993945685
tp3224
a(I1524
F0.39482587742326736
tp3225
a(I1437
F0.3953107978853649
tp3226
a(I189
F0.3960824938402372
tp3227
a(I3069
F0.39681479856859525
tp3228
a(I2887
F0.3983786767766993
tp3229
a(I2193
F0.400699022416419
tp3230
a(I1232
F0.40073363253961136
tp3231
a(I1317
F0.40275423667866983
tp3232
a(I1794
F0.4029445060517026
tp3233
a(I1080
F0.40393453602979024
tp3234
a(I2167
F0.40436285517233755
tp3235
a(I1696
F0.40488407488593575
tp3236
a(I340
F0.4078033719833196
tp3237
a(I1489
F0.40851591672172477
tp3238
a(I1417
F0.408758702053062
tp3239
a(I3176
F0.4100756440016558
tp3240
a(I2910
F0.41097009705889365
tp3241
a(I1449
F0.41134312467651174
tp3242
a(I1631
F0.4134992593966522
tp3243
a(I1730
F0.4161928123143045
tp3244
a(I2398
F0.41784875793980863
tp3245
a(I2934
F0.41855415988661465
tp3246
a(I3078
F0.4186674063437443
tp3247
a(I317
F0.41879480264041
tp3248
a(I2410
F0.41968287975048596
tp3249
a(I2889
F0.4205147913182129
tp3250
a(I2718
F0.4226647819599671
tp3251
a(I1326
F0.4243129775979657
tp3252
a(I2551
F0.42584731143757254
tp3253
a(I951
F0.4261657651534412
tp3254
a(I872
F0.4291116219442987
tp3255
a(I2589
F0.42985799362473803
tp3256
a(I2971
F0.43004804562213095
tp3257
a(I1181
F0.43342464700174
tp3258
a(I1373
F0.4344924342580684
tp3259
a(I551
F0.43621004210552694
tp3260
a(I2448
F0.4363348329697289
tp3261
a(I2563
F0.43671458738878427
tp3262
a(I1372
F0.43774766355186007
tp3263
a(I2555
F0.437882888514481
tp3264
a(I992
F0.44081155809015693
tp3265
a(I3104
F0.44109254599093334
tp3266
a(I2742
F0.44148354020802394
tp3267
a(I2031
F0.4420383690435121
tp3268
a(I1682
F0.44397555096136365
tp3269
a(I1380
F0.4446772393023031
tp3270
a(I1860
F0.44523148514559857
tp3271
a(I1178
F0.44712261318626123
tp3272
a(I2127
F0.4479199220381598
tp3273
a(I2044
F0.4489970454736702
tp3274
a(I1768
F0.4507844461164667
tp3275
a(I1634
F0.45185791572214473
tp3276
a(I893
F0.45384214993070254
tp3277
a(I3139
F0.4558386463818095
tp3278
a(I788
F0.4595385161502886
tp3279
a(I1059
F0.46299180356922065
tp3280
a(I826
F0.4632150854402353
tp3281
a(I2947
F0.4653818712688735
tp3282
a(I2777
F0.4665066949565522
tp3283
a(I651
F0.47038270674193405
tp3284
a(I1519
F0.47075692728886814
tp3285
a(I2799
F0.4728512358884533
tp3286
a(I1296
F0.4730053976464027
tp3287
a(I1807
F0.4735504800630724
tp3288
a(I2434
F0.4736904773640019
tp3289
a(I2699
F0.4739678436043565
tp3290
a(I2479
F0.4750122704247819
tp3291
a(I2907
F0.47618131968833133
tp3292
a(I2568
F0.477432766108165
tp3293
a(I1114
F0.47939154655986893
tp3294
a(I1301
F0.4803421786085387
tp3295
a(I2314
F0.48247698952040063
tp3296
a(I2804
F0.4828059301577475
tp3297
a(I3042
F0.4854075164723659
tp3298
a(I1952
F0.48747439987109253
tp3299
a(I2496
F0.48855864047895836
tp3300
a(I1415
F0.48911476640351875
tp3301
a(I2189
F0.49083724532709155
tp3302
a(I450
F0.49228269422929893
tp3303
a(I2874
F0.4927862301803051
tp3304
a(I1491
F0.4966187536074748
tp3305
a(I2145
F0.4975009186844551
tp3306
a(I3115
F0.4980095269677892
tp3307
a(I2716
F0.49866420328677125
tp3308
a(I1507
F0.4990623580526234
tp3309
a(I420
F0.5
tp3310
a(I421
F0.5
tp3311
a(I1687
F0.5
tp3312
a(I1938
F0.5
tp3313
a(I2248
F0.5
tp3314
a(I2426
F0.5
tp3315
a(I2655
F0.5
tp3316
a(I2915
F0.5
tp3317
a(I2258
F0.5015574391158573
tp3318
a(I846
F0.5025910274325613
tp3319
a(I1367
F0.5027154434771166
tp3320
a(I1383
F0.5035715518782795
tp3321
a(I2452
F0.5036349788635627
tp3322
a(I3071
F0.5037135146946492
tp3323
a(I1653
F0.5038082954521241
tp3324
a(I2252
F0.5041782771548677
tp3325
a(I2308
F0.5042897837585465
tp3326
a(I2113
F0.5054478277098783
tp3327
a(I1252
F0.5057577320764235
tp3328
a(I1272
F0.5059415187786802
tp3329
a(I3077
F0.5063245892065671
tp3330
a(I917
F0.5065340003043968
tp3331
a(I305
F0.5066227234951471
tp3332
a(I306
F0.5066227234951471
tp3333
a(I352
F0.5066764973472604
tp3334
a(I2442
F0.5068218668294165
tp3335
a(I1947
F0.5068892870736739
tp3336
a(I3014
F0.5069104253073647
tp3337
a(I2581
F0.506990411066036
tp3338
a(I2561
F0.5070044205289862
tp3339
a(I2925
F0.5070446917997127
tp3340
a(I2511
F0.5070468574293375
tp3341
a(I1932
F0.5070828016189423
tp3342
a(I1011
F0.5070867919852043
tp3343
a(I1399
F0.5072486726206925
tp3344
a(I1751
F0.5073379538334702
tp3345
a(I2360
F0.5075440778112592
tp3346
a(I3117
F0.5075575992357843
tp3347
a(I2967
F0.5076188034159136
tp3348
a(I2465
F0.507643772439172
tp3349
a(I1125
F0.5076658612728945
tp3350
a(I985
F0.5077728000520979
tp3351
a(I3083
F0.5078005039959449
tp3352
a(I1834
F0.5078396137282809
tp3353
a(I361
F0.5080907944262824
tp3354
a(I1992
F0.5081102269441872
tp3355
a(I3082
F0.5084182549900138
tp3356
a(I2873
F0.5087224836226708
tp3357
a(I3054
F0.5088163370400139
tp3358
a(I2754
F0.5088284509207964
tp3359
a(I2449
F0.5089283583680707
tp3360
a(I1770
F0.5089346465742246
tp3361
a(I3124
F0.5089387816852322
tp3362
a(I2485
F0.5090584088045518
tp3363
a(I835
F0.5090787629578988
tp3364
a(I3136
F0.5092513625135153
tp3365
a(I2901
F0.5093657093139851
tp3366
a(I3072
F0.5098761711203396
tp3367
a(I1845
F0.5099782476640914
tp3368
a(I2926
F0.5101072471919594
tp3369
a(I2382
F0.5101305636125535
tp3370
a(I2518
F0.5102118000073249
tp3371
a(I2580
F0.5107458133035705
tp3372
a(I500
F0.5108470274327419
tp3373
a(I1823
F0.5117226439190539
tp3374
a(I258
F0.5119194596209719
tp3375
a(I2414
F0.5123717122901591
tp3376
a(I1460
F0.512901205315885
tp3377
a(I2701
F0.5131423212876166
tp3378
a(I1891
F0.5142155150783663
tp3379
a(I2560
F0.5144026743918151
tp3380
a(I2514
F0.51651775073552
tp3381
a(I2714
F0.5169056479295744
tp3382
a(I1321
F0.5194534674337847
tp3383
a(I913
F0.5195473408585324
tp3384
a(I2165
F0.5205394826459173
tp3385
a(I2819
F0.5226321274533258
tp3386
a(I1313
F0.5227405433555363
tp3387
a(I1492
F0.5240560925142683
tp3388
a(I3010
F0.5252427000124252
tp3389
a(I919
F0.5258410634698572
tp3390
a(I1488
F0.5276332380853166
tp3391
a(I888
F0.5279966079484354
tp3392
a(I3150
F0.5293640814834122
tp3393
a(I1740
F0.530293939522987
tp3394
a(I461
F0.5309664020335723
tp3395
a(I1362
F0.5323350273636913
tp3396
a(I3075
F0.5323456376314608
tp3397
a(I2289
F0.5333560686869957
tp3398
a(I1209
F0.5370948751453923
tp3399
a(I770
F0.5388295279403499
tp3400
a(I2486
F0.5425135706178783
tp3401
a(I2974
F0.5432500831616225
tp3402
a(I2868
F0.54501332771721
tp3403
a(I2191
F0.5480918900015799
tp3404
a(I2661
F0.5481911935033609
tp3405
a(I1942
F0.5534120271222913
tp3406
a(I1832
F0.5563433408924372
tp3407
a(I767
F0.556754927132418
tp3408
a(I2720
F0.5624956752656746
tp3409
a(I2550
F0.5626609420252714
tp3410
a(I1673
F0.5636243720736965
tp3411
a(I2780
F0.5689155951401452
tp3412
a(I2043
F0.5690971765280823
tp3413
a(I881
F0.5735279169586476
tp3414
a(I1253
F0.5744709040855277
tp3415
a(I2380
F0.5755116688382627
tp3416
a(I2094
F0.5801299268717404
tp3417
a(I2734
F0.5804702300609043
tp3418
a(I3008
F0.5807099922828107
tp3419
a(I2764
F0.5851057463672112
tp3420
a(I1013
F0.5926048545305638
tp3421
a(I1120
F0.5966355989106353
tp3422
a(I2768
F0.5972777442281663
tp3423
a(I2993
F0.5975765309234263
tp3424
a(I1316
F0.5978711552818148
tp3425
a(I2707
F0.5979743433510349
tp3426
a(I2912
F0.6001928131796125
tp3427
a(I2677
F0.6015448249584439
tp3428
a(I2837
F0.604529280687655
tp3429
a(I1739
F0.605908308350009
tp3430
a(I2773
F0.6108928261605624
tp3431
a(I2719
F0.6128696334338497
tp3432
a(I791
F0.6229703163387755
tp3433
a(I1900
F0.6234217188330129
tp3434
a(I1821
F0.6246820687481577
tp3435
a(I442
F0.6294886673597672
tp3436
a(I2776
F0.6326764832175756
tp3437
a(I2984
F0.6331608451264232
tp3438
a(I2695
F0.6376386266449718
tp3439
a(I1796
F0.640494771336539
tp3440
a(I1888
F0.6495184807460022
tp3441
a(I2332
F0.6510590744159382
tp3442
a(I1138
F0.6536648301926239
tp3443
a(I1915
F0.6614819411174364
tp3444
a(I509
F0.6645820976669926
tp3445
a(I1816
F0.6724416500989254
tp3446
a(I1848
F0.6727020186924318
tp3447
a(I2879
F0.6733783365252112
tp3448
a(I1835
F0.6780467182242002
tp3449
a(I3073
F0.6814945354929357
tp3450
a(I2128
F0.6828437410573919
tp3451
a(I2558
F0.6895548256749315
tp3452
a(I2820
F0.6913953287679708
tp3453
a(I1951
F0.6960037556984472
tp3454
a(I2170
F0.699781967284468
tp3455
a(I3114
F0.7006008613977006
tp3456
a(I675
F0.7048657050546275
tp3457
a(I2994
F0.710166500189421
tp3458
a(I1640
F0.7180304400564964
tp3459
a(I2630
F0.7318757699936016
tp3460
a(I2673
F0.7439350600981476
tp3461
a(I922
F0.7451278580744949
tp3462
a(I496
F0.7484654194732709
tp3463
a(I3020
F0.7488476838895873
tp3464
a(I874
F0.7501339038946497
tp3465
a(I2070
F0.7504534252694957
tp3466
a(I1732
F0.7537098633344516
tp3467
a(I2618
F0.7578976194128724
tp3468
a(I1521
F0.7595546126498659
tp3469
a(I820
F0.7598085819153275
tp3470
a(I2508
F0.7612515297389039
tp3471
a(I1784
F0.7637798262447977
tp3472
a(I2207
F0.7654615765352661
tp3473
a(I871
F0.7677387401216047
tp3474
a(I3012
F0.7745899642616902
tp3475
a(I953
F0.7767197274533717
tp3476
a(I3137
F0.7772251563606163
tp3477
a(I1366
F0.7801816906060122
tp3478
a(I2633
F0.7824452331594056
tp3479
a(I2554
F0.7828552640085229
tp3480
a(I2197
F0.7846593481161516
tp3481
a(I1414
F0.7890605096310328
tp3482
a(I3084
F0.7927405651362849
tp3483
a(I2166
F0.8008758964021707
tp3484
a(I3074
F0.8062393801186873
tp3485
a(I3004
F0.8074282386815638
tp3486
a(I3085
F0.8194830804576823
tp3487
a(I2834
F0.8204612159160455
tp3488
a(I886
F0.8281066234437168
tp3489
a(I3046
F0.8291828718163989
tp3490
a(I1068
F0.8326268064488769
tp3491
a(I692
F0.8384746303839763
tp3492
a(I3094
F0.8417693833143106
tp3493
a(I1946
F0.8440167863931127
tp3494
a(I1520
F0.8452401324035296
tp3495
a(I2475
F0.8455656198731017
tp3496
a(I2469
F0.8487699773978516
tp3497
a(I1127
F0.8532335331662824
tp3498
a(I2036
F0.8555810054293589
tp3499
a(I2169
F0.8567364494807074
tp3500
a(I1211
F0.858271020588532
tp3501
a(I2637
F0.8692877399383669
tp3502
a(I1293
F0.8776855480158289
tp3503
a(I2454
F0.8793599152879453
tp3504
a(I2908
F0.8823467966504905
tp3505
a(I3101
F0.8865196871317989
tp3506
a(I771
F0.8866998114360884
tp3507
a(I1894
F0.8891615256905759
tp3508
a(I3023
F0.890105748736491
tp3509
a(I2498
F0.890630447535349
tp3510
a(I1843
F0.8991321230581226
tp3511
a(I2333
F0.903340603164486
tp3512
a(I1629
F0.9045665629621946
tp3513
a(I2285
F0.9075945632652106
tp3514
a(I2864
F0.9109600254637722
tp3515
a(I2708
F0.9236196655183064
tp3516
a(I1879
F0.9387921055112952
tp3517
a(I3129
F0.9421377273422746
tp3518
a(I923
F0.9425478435516444
tp3519
a(I3052
F0.9473170156198727
tp3520
a(I2543
F0.9513373071111514
tp3521
a(I1892
F0.9602019211944194
tp3522
a(I3070
F0.962409438142938
tp3523
a(I2652
F0.967075393463573
tp3524
a(I2859
F0.9726566802058918
tp3525
a(I1971
F0.9727191291445764
tp3526
a(I2527
F0.9800906886540023
tp3527
a(I2647
F0.9833814650219437
tp3528
a(I1591
F0.9836548211685292
tp3529
a(I2674
F0.9884760225985836
tp3530
a(I814
F0.9900669823874021
tp3531
a(I2362
F0.9971696207471681
tp3532
a(I1341
F1.0
tp3533
a(I1948
F1.0
tp3534
a(I1949
F1.0
tp3535
a(I2032
F1.0
tp3536
a(I2277
F1.0
tp3537
a(I2349
F1.0
tp3538
a(I2356
F1.0
tp3539
a(I2632
F1.0
tp3540
a(I2651
F1.0
tp3541
a(I2664
F1.0
tp3542
a(I2688
F1.0
tp3543
a(I2709
F1.0
tp3544
a(I2911
F1.0
tp3545
a(I3170
F1.0
tp3546
a(I3191
F1.0
tp3547
a(I2517
F1.0000411343931237
tp3548
a(I3183
F1.0014012448842473
tp3549
a(I2916
F1.0081714886625281
tp3550
a(I1462
F1.0123643846806853
tp3551
a(I1162
F1.0123852638006903
tp3552
a(I1208
F1.0135711992604504
tp3553
a(I1388
F1.0136206219000838
tp3554
a(I1122
F1.013722721076067
tp3555
a(I3009
F1.0138657703299334
tp3556
a(I2116
F1.01387514654906
tp3557
a(I2057
F1.0139186232674362
tp3558
a(I1737
F1.0139958229369328
tp3559
a(I1887
F1.0140473012072704
tp3560
a(I3147
F1.0140637201170808
tp3561
a(I1274
F1.0140776330812065
tp3562
a(I2156
F1.0140852375636817
tp3563
a(I2981
F1.0141267493133002
tp3564
a(I2789
F1.0141893423362625
tp3565
a(I1466
F1.0142147966090467
tp3566
a(I2427
F1.0143104348323302
tp3567
a(I2702
F1.014415903747078
tp3568
a(I2186
F1.0144314288231957
tp3569
a(I2187
F1.0144314288231957
tp3570
a(I2224
F1.0145082292530787
tp3571
a(I2141
F1.0147088044845098
tp3572
a(I2227
F1.0147546534702132
tp3573
a(I716
F1.0148608232754803
tp3574
a(I1035
F1.0149011745280376
tp3575
a(I2343
F1.0149077015059456
tp3576
a(I2344
F1.0149077015059456
tp3577
a(I2775
F1.015015618333248
tp3578
a(I777
F1.015054436018932
tp3579
a(I1984
F1.0151032153278519
tp3580
a(I1826
F1.015126384706133
tp3581
a(I2748
F1.0151308660506935
tp3582
a(I2536
F1.0152315542333499
tp3583
a(I1391
F1.0152813894813237
tp3584
a(I2583
F1.0152898619156074
tp3585
a(I3143
F1.0152980287637217
tp3586
a(I3144
F1.0152980287637217
tp3587
a(I1285
F1.0153417159118776
tp3588
a(I2570
F1.0154002859333668
tp3589
a(I2572
F1.0154002859333668
tp3590
a(I1268
F1.015449638501084
tp3591
a(I2093
F1.0154538222597336
tp3592
a(I1073
F1.015458274298458
tp3593
a(I1974
F1.0154919856912803
tp3594
a(I2304
F1.0155461181184238
tp3595
a(I3092
F1.0155519242769608
tp3596
a(I2778
F1.0155840319404055
tp3597
a(I684
F1.0156776289378964
tp3598
a(I1837
F1.0156792274565618
tp3599
a(I3130
F1.0156839782692109
tp3600
a(I2533
F1.0156904238635778
tp3601
a(I1913
F1.0157381482898007
tp3602
a(I3166
F1.0157626461285676
tp3603
a(I1978
F1.0158089767785314
tp3604
a(I2745
F1.0158111639328893
tp3605
a(I3345
F1.0160015500983595
tp3606
a(I1705
F1.0161067740510221
tp3607
a(I2883
F1.0161708526491788
tp3608
a(I1909
F1.016178734128311
tp3609
a(I1910
F1.016178734128311
tp3610
a(I365
F1.0161815888525647
tp3611
a(I3024
F1.016212098876534
tp3612
a(I3026
F1.016212098876534
tp3613
a(I3018
F1.0163503848655282
tp3614
a(I438
F1.0168257169914074
tp3615
a(I1980
F1.0168390447441085
tp3616
a(I2891
F1.016979366321574
tp3617
a(I3005
F1.017123801541924
tp3618
a(I1665
F1.0171687220198329
tp3619
a(I2202
F1.0173390228020014
tp3620
a(I2862
F1.0175173140086076
tp3621
a(I2318
F1.0175891760706095
tp3622
a(I3007
F1.017631756577341
tp3623
a(I3113
F1.0176852980652424
tp3624
a(I2002
F1.0177763425719797
tp3625
a(I2447
F1.0178567167361414
tp3626
a(I3066
F1.0179292255037413
tp3627
a(I2467
F1.0179635844227881
tp3628
a(I2216
F1.0180626066014753
tp3629
a(I2453
F1.0182485279554299
tp3630
a(I731
F1.018252545855881
tp3631
a(I736
F1.018252545855881
tp3632
a(I3135
F1.0185027250270307
tp3633
a(I1782
F1.0192351861451787
tp3634
a(I2786
F1.0193067919461865
tp3635
a(I2182
F1.0193856898443556
tp3636
a(I499
F1.0199444401404947
tp3637
a(I2736
F1.020233423166117
tp3638
a(I1461
F1.020312868341105
tp3639
a(I2842
F1.0205540985604433
tp3640
a(I2433
F1.020562156622035
tp3641
a(I3192
F1.020782942565074
tp3642
a(I3047
F1.021202164613401
tp3643
a(I449
F1.0215549330384597
tp3644
a(I1893
F1.0219672217438494
tp3645
a(I1824
F1.0234452878381077
tp3646
a(I2152
F1.0244193447540941
tp3647
a(I2490
F1.0244952899749769
tp3648
a(I1765
F1.0255597688397151
tp3649
a(I3647
F1.0280649399752286
tp3650
a(I3133
F1.0304445030982936
tp3651
a(I2613
F1.0320100212049923
tp3652
a(I2614
F1.0320100212049923
tp3653
a(I3013
F1.0338126410585957
tp3654
a(I2501
F1.0408082156039244
tp3655
a(I2399
F1.0682045533280018
tp3656
a.