(lp0
(I0
I0
tp1
a(I1
F0.3225196051656197
tp2
a(I2
F0.32718890210421936
tp3
a(I3
F0.3648393194706994
tp4
a(I4
F0.5661529960877263
tp5
a(I5
F0.7708209256740657
tp6
a(I6
F0.8289784378359364
tp7
a(I7
F0.8864393465589134
tp8
a(I8
F0.928251048983407
tp9
a(I9
F0.9366963589655678
tp10
a(I10
F0.9935916580828972
tp11
a(I11
F0.9935916580828972
tp12
a(I12
F1.0
tp13
a(I13
F1.0
tp14
a(I14
F1.0
tp15
a(I15
F1.0
tp16
a.