(lp0
(I395
F0.007720139775969447
tp1
a(I1338
F0.010022542164445173
tp2
a(I293
F0.016458457267499515
tp3
a(I1065
F0.020556471549776016
tp4
a(I651
F0.02225470410572853
tp5
a(I1
F0.02482190996292596
tp6
a(I217
F0.025347698147207415
tp7
a(I1219
F0.02685731472533866
tp8
a(I1720
F0.03816004855677481
tp9
a(I720
F0.03817362849340259
tp10
a(I1591
F0.03905650078024934
tp11
a(I740
F0.06336889631097437
tp12
a(I1336
F0.06475773836142018
tp13
a(I130
F0.0828699503320549
tp14
a(I915
F0.08933109534738261
tp15
a(I237
F0.09944334505844772
tp16
a(I1873
F0.10293311652687613
tp17
a(I746
F0.12217283950617279
tp18
a(I993
F0.12911264326804892
tp19
a(I1555
F0.13458276581225823
tp20
a(I555
F0.14647010765090357
tp21
a(I142
F0.14874538131643045
tp22
a(I128
F0.15195735516309392
tp23
a(I1559
F0.1542372260557431
tp24
a(I1666
F0.15694859866043911
tp25
a(I1573
F0.1572211007368351
tp26
a(I1501
F0.16942933775541621
tp27
a(I169
F0.17249494517529104
tp28
a(I705
F0.1764781376085075
tp29
a(I61
F0.18294784580498866
tp30
a(I742
F0.18630707264391963
tp31
a(I879
F0.2005387743799498
tp32
a(I911
F0.20728910360708683
tp33
a(I179
F0.21550365883547495
tp34
a(I238
F0.22014367336028595
tp35
a(I1034
F0.22096877869605144
tp36
a(I153
F0.22198282741230171
tp37
a(I1741
F0.23010602741055675
tp38
a(I12
F0.23611190748515543
tp39
a(I22
F0.2402666950918512
tp40
a(I1663
F0.24080767659111066
tp41
a(I112
F0.24479338842975204
tp42
a(I696
F0.2475681727763627
tp43
a(I86
F0.24798143249110535
tp44
a(I1440
F0.2598726773976503
tp45
a(I1324
F0.26015126242121545
tp46
a(I17
F0.2700651992304516
tp47
a(I229
F0.2747149956535854
tp48
a(I163
F0.2949094457329263
tp49
a(I62
F0.3033447265625
tp50
a(I172
F0.3054192958825512
tp51
a(I99
F0.31494001194265675
tp52
a(I32
F0.3173889185156471
tp53
a(I895
F0.3184869626195031
tp54
a(I195
F0.31970441277397965
tp55
a(I184
F0.3258915732251914
tp56
a(I191
F0.3277598445148524
tp57
a(I175
F0.3322952122328629
tp58
a(I78
F0.33537422324256916
tp59
a(I1537
F0.3370760279014231
tp60
a(I91
F0.3592270845395283
tp61
a(I182
F0.36252524178977574
tp62
a(I1664
F0.3631947933542625
tp63
a(I1655
F0.37972539522661136
tp64
a(I1806
F0.3797700325037373
tp65
a(I1657
F0.3833867491142606
tp66
a(I121
F0.3905816964781807
tp67
a(I116
F0.3911858549266064
tp68
a(I93
F0.3922839834201297
tp69
a(I148
F0.40112021648286456
tp70
a(I1511
F0.40215808000000025
tp71
a(I1708
F0.4033724262312197
tp72
a(I1108
F0.4038272096673989
tp73
a(I158
F0.40484309233310245
tp74
a(I1243
F0.4059481838344645
tp75
a(I1556
F0.4165098236200899
tp76
a(I1131
F0.42234827838813777
tp77
a(I214
F0.42887333289006024
tp78
a(I3
F0.4377162629757786
tp79
a(I978
F0.44699623228072777
tp80
a(I1039
F0.45156152555700574
tp81
a(I119
F0.4595303686212778
tp82
a(I219
F0.4601313627468499
tp83
a(I1661
F0.4645618135636471
tp84
a(I76
F0.46896865314765906
tp85
a(I122
F0.47921457949684226
tp86
a(I211
F0.47935059471474667
tp87
a(I161
F0.48148662983420326
tp88
a(I1055
F0.4826677028689835
tp89
a(I1805
F0.4853596008948065
tp90
a(I84
F0.48536742499119984
tp91
a(I159
F0.4878236914600551
tp92
a(I88
F0.4889691879542078
tp93
a(I1650
F0.4913293888850993
tp94
a(I1769
F0.49706417038267336
tp95
a(I21
F0.5000442608972135
tp96
a(I70
F0.5001113833815994
tp97
a(I1566
F0.5003056573463406
tp98
a(I11
F0.500369657086007
tp99
a(I136
F0.5008412540587257
tp100
a(I1649
F0.5012252979557177
tp101
a(I114
F0.5015432098765432
tp102
a(I992
F0.5037983266144171
tp103
a(I143
F0.5053328482945705
tp104
a(I71
F0.5082182774490467
tp105
a(I133
F0.5085240478432094
tp106
a(I138
F0.5085240478432094
tp107
a(I155
F0.5116345877621373
tp108
a(I1605
F0.5122934861321246
tp109
a(I108
F0.5162590701424348
tp110
a(I72
F0.516450533861107
tp111
a(I63
F0.517578125
tp112
a(I34
F0.5177176988377248
tp113
a(I6
F0.52
tp114
a(I141
F0.5236294896030247
tp115
a(I1626
F0.525609910736696
tp116
a(I36
F0.5288127455406622
tp117
a(I132
F0.5296188315626333
tp118
a(I222
F0.5323541294686496
tp119
a(I974
F0.5327896950810008
tp120
a(I1865
F0.5452791251095289
tp121
a(I38
F0.547536984937677
tp122
a(I51
F0.547536984937677
tp123
a(I54
F0.547536984937677
tp124
a(I57
F0.547536984937677
tp125
a(I47
F0.5518266714866921
tp126
a(I1665
F0.5570536280407394
tp127
a(I1752
F0.5572172561602031
tp128
a(I111
F0.5642577429690281
tp129
a(I19
F0.5653340454966074
tp130
a(I478
F0.5748000678479698
tp131
a(I194
F0.575266272189349
tp132
a(I45
F0.5765165026881279
tp133
a(I46
F0.5773651038291439
tp134
a(I23
F0.5778787278269926
tp135
a(I200
F0.581802184151959
tp136
a(I1558
F0.5821685462109916
tp137
a(I115
F0.5881358895169279
tp138
a(I101
F0.5884356712376626
tp139
a(I103
F0.5959194176261584
tp140
a(I1061
F0.5969809563285154
tp141
a(I41
F0.598430934660408
tp142
a(I48
F0.598430934660408
tp143
a(I220
F0.6005917159763311
tp144
a(I766
F0.6062994923372956
tp145
a(I69
F0.6079112158224317
tp146
a(I137
F0.6117601661726915
tp147
a(I1538
F0.6135132061982654
tp148
a(I1541
F0.6135132061982654
tp149
a(I205
F0.6172619753965427
tp150
a(I157
F0.6242119552197118
tp151
a(I102
F0.625
tp152
a(I165
F0.625
tp153
a(I1040
F0.6326055785515247
tp154
a(I113
F0.6352
tp155
a(I1748
F0.6396765073781135
tp156
a(I1757
F0.6472394825366524
tp157
a(I134
F0.6474119782533216
tp158
a(I1670
F0.6514355345833559
tp159
a(I1242
F0.6528201155814233
tp160
a(I107
F0.6586640224252017
tp161
a(I1754
F0.6611230777658751
tp162
a(I176
F0.6614645425290084
tp163
a(I1647
F0.6636871215986789
tp164
a(I1668
F0.6636871215986789
tp165
a(I123
F0.6664989811390769
tp166
a(I124
F0.6664989811390769
tp167
a(I127
F0.6664989811390769
tp168
a(I13
F0.6665601838548358
tp169
a(I14
F0.6665601838548358
tp170
a(I24
F0.6665601838548358
tp171
a(I1837
F0.6709876960519195
tp172
a(I1758
F0.6720231548947018
tp173
a(I1767
F0.6720231548947018
tp174
a(I1773
F0.6720231548947018
tp175
a(I1781
F0.6720231548947018
tp176
a(I215
F0.6759020121537114
tp177
a(I89
F0.6833365770339914
tp178
a(I203
F0.6867060156286324
tp179
a(I4
F0.6903576278859211
tp180
a(I15
F0.6953986451086673
tp181
a(I16
F0.6953986451086673
tp182
a(I94
F0.6956450882752376
tp183
a(I95
F0.6967796975686311
tp184
a(I42
F0.6990615947828693
tp185
a(I50
F0.6990615947828693
tp186
a(I52
F0.6990615947828693
tp187
a(I150
F0.702040478307991
tp188
a(I212
F0.7024793388429753
tp189
a(I1667
F0.7034114460385732
tp190
a(I149
F0.7080371190490065
tp191
a(I187
F0.7080816637344597
tp192
a(I171
F0.7209169550173011
tp193
a(I49
F0.7237859778627178
tp194
a(I1715
F0.728343997850511
tp195
a(I1723
F0.7294630731354879
tp196
a(I1045
F0.7331170350079605
tp197
a(I1768
F0.7347019055869772
tp198
a(I1675
F0.7349497518615663
tp199
a(I699
F0.735342398753928
tp200
a(I207
F0.7385982422099739
tp201
a(I1808
F0.7395643158180827
tp202
a(I1614
F0.743632075604509
tp203
a(I168
F0.7454764218612615
tp204
a(I748
F0.7473835654896287
tp205
a(I183
F0.7526956811779364
tp206
a(I1877
F0.7582336005224206
tp207
a(I125
F0.7617065948905987
tp208
a(I145
F0.7711361744709107
tp209
a(I37
F0.775750211597821
tp210
a(I173
F0.7822527473060801
tp211
a(I20
F0.7852885827232868
tp212
a(I213
F0.7863027695914543
tp213
a(I1770
F0.7990182253181014
tp214
a(I1540
F0.7998283203125001
tp215
a(I109
F0.8007405524848655
tp216
a(I110
F0.8007405524848655
tp217
a(I178
F0.8024691358024691
tp218
a(I8
F0.8062381852551984
tp219
a(I97
F0.8076698165078687
tp220
a(I18
F0.8098964428932294
tp221
a(I85
F0.8117107845405487
tp222
a(I210
F0.8128545750878859
tp223
a(I25
F0.8152991814262589
tp224
a(I26
F0.8152991814262589
tp225
a(I27
F0.8152991814262589
tp226
a(I28
F0.8152991814262589
tp227
a(I1870
F0.8154647616220332
tp228
a(I33
F0.8171030094159142
tp229
a(I53
F0.8171030094159142
tp230
a(I58
F0.8171030094159142
tp231
a(I59
F0.8171030094159142
tp232
a(I162
F0.817332714470179
tp233
a(I164
F0.817332714470179
tp234
a(I166
F0.817332714470179
tp235
a(I167
F0.817332714470179
tp236
a(I87
F0.8259119423779041
tp237
a(I193
F0.8268530743928626
tp238
a(I170
F0.8343120413429264
tp239
a(I174
F0.8349787335563804
tp240
a(I75
F0.8367298510421199
tp241
a(I9
F0.8388327584628064
tp242
a(I202
F0.8395674263318333
tp243
a(I741
F0.8397833899891306
tp244
a(I31
F0.8419008875739644
tp245
a(I60
F0.8429072375911779
tp246
a(I1863
F0.8437012824162381
tp247
a(I77
F0.8472222222222221
tp248
a(I82
F0.8472222222222221
tp249
a(I181
F0.8478419851015524
tp250
a(I1809
F0.8525390625
tp251
a(I79
F0.8525417329325813
tp252
a(I139
F0.8569342832482021
tp253
a(I140
F0.8569342832482021
tp254
a(I154
F0.8575153790501739
tp255
a(I929
F0.8677103787125007
tp256
a(I573
F0.8731714873163492
tp257
a(I1765
F0.8752533127787561
tp258
a(I118
F0.8792924037460976
tp259
a(I151
F0.8854381743014319
tp260
a(I305
F0.885852108021562
tp261
a(I43
F0.8863343189889221
tp262
a(I912
F0.8865894439634949
tp263
a(I35
F0.8903053449180165
tp264
a(I218
F0.8949460864700622
tp265
a(I2036
F0.8953393425648632
tp266
a(I146
F0.8963623422591567
tp267
a(I1762
F0.8967308652368136
tp268
a(I1109
F0.9032452249598149
tp269
a(I196
F0.905713824940581
tp270
a(I92
F0.9070632265726317
tp271
a(I1036
F0.9083512202921764
tp272
a(I550
F0.9107108578448846
tp273
a(I206
F0.9110719722415095
tp274
a(I1250
F0.9155840892812253
tp275
a(I1253
F0.9155840892812253
tp276
a(I1275
F0.9155840892812253
tp277
a(I1280
F0.9155840892812253
tp278
a(I129
F0.918484698743158
tp279
a(I131
F0.918484698743158
tp280
a(I1753
F0.9208353817738517
tp281
a(I392
F0.9250888595044179
tp282
a(I1824
F0.9292855548683601
tp283
a(I1212
F0.9303928082731652
tp284
a(I1872
F0.9339493378663672
tp285
a(I144
F0.9390581997222573
tp286
a(I1898
F0.9407420918313849
tp287
a(I29
F0.942702008664014
tp288
a(I186
F0.9455616770668656
tp289
a(I189
F0.9455616770668656
tp290
a(I190
F0.9455616770668656
tp291
a(I1069
F0.9463284245760193
tp292
a(I1038
F0.9501370087620853
tp293
a(I1019
F0.9510919003839212
tp294
a(I56
F0.9515702057731446
tp295
a(I1236
F0.9520682705074709
tp296
a(I80
F0.9526711654417743
tp297
a(I1233
F0.9536567653813521
tp298
a(I40
F0.9588601655019033
tp299
a(I104
F0.9593497305824586
tp300
a(I913
F0.9601392042045351
tp301
a(I1841
F0.9607999999999999
tp302
a(I209
F0.9679789080146978
tp303
a(I277
F0.96878591976155
tp304
a(I1839
F0.9700874530526684
tp305
a(I105
F0.9716084608899727
tp306
a(I106
F0.9716084608899727
tp307
a(I55
F0.9758644477810392
tp308
a(I1267
F0.9758923074995185
tp309
a(I1760
F0.9759424890928674
tp310
a(I1716
F0.9796975673898751
tp311
a(I1761
F0.980485677451419
tp312
a(I208
F0.9809467200422735
tp313
a(I1654
F0.9814690372622241
tp314
a(I10
F0.9859842440749289
tp315
a(I221
F0.98650625659641
tp316
a(I197
F0.9905700030948882
tp317
a(I198
F0.9905700030948882
tp318
a(I1213
F0.9931718144271592
tp319
a(I1214
F0.9931718144271592
tp320
a(I1215
F0.9931718144271592
tp321
a(I73
F0.9976016799209698
tp322
a(I74
F0.9976016799209698
tp323
a(I394
F0.9982297243538713
tp324
a(I398
F0.9982297243538713
tp325
a(I400
F0.9982297243538713
tp326
a(I401
F0.9982297243538713
tp327
a(I39
F0.9983390359353015
tp328
a(I44
F0.9983390359353015
tp329
a(I1268
F0.9987323444309955
tp330
a(I0
F1.0
tp331
a(I2
F1.0
tp332
a(I5
F1.0
tp333
a(I7
F1.0
tp334
a(I30
F1.0
tp335
a(I64
F1.0
tp336
a(I65
F1.0
tp337
a(I66
F1.0
tp338
a(I67
F1.0
tp339
a(I68
F1.0
tp340
a(I81
F1.0
tp341
a(I83
F1.0
tp342
a(I90
F1.0
tp343
a(I96
F1.0
tp344
a(I100
F1.0
tp345
a(I117
F1.0
tp346
a(I120
F1.0
tp347
a(I126
F1.0
tp348
a(I135
F1.0
tp349
a(I147
F1.0
tp350
a(I152
F1.0
tp351
a(I156
F1.0
tp352
a(I160
F1.0
tp353
a(I177
F1.0
tp354
a(I180
F1.0
tp355
a(I185
F1.0
tp356
a(I188
F1.0
tp357
a(I192
F1.0
tp358
a(I199
F1.0
tp359
a(I201
F1.0
tp360
a(I204
F1.0
tp361
a(I216
F1.0
tp362
a(I223
F1.0
tp363
a(I224
F1.0
tp364
a(I225
F1.0
tp365
a(I226
F1.0
tp366
a(I227
F1.0
tp367
a(I228
F1.0
tp368
a(I230
F1.0
tp369
a(I231
F1.0
tp370
a(I232
F1.0
tp371
a(I233
F1.0
tp372
a(I234
F1.0
tp373
a(I235
F1.0
tp374
a(I236
F1.0
tp375
a(I239
F1.0
tp376
a(I240
F1.0
tp377
a(I241
F1.0
tp378
a(I242
F1.0
tp379
a(I243
F1.0
tp380
a(I244
F1.0
tp381
a(I245
F1.0
tp382
a(I246
F1.0
tp383
a(I247
F1.0
tp384
a(I248
F1.0
tp385
a(I249
F1.0
tp386
a(I250
F1.0
tp387
a(I251
F1.0
tp388
a(I252
F1.0
tp389
a(I253
F1.0
tp390
a(I254
F1.0
tp391
a(I255
F1.0
tp392
a(I256
F1.0
tp393
a(I257
F1.0
tp394
a(I258
F1.0
tp395
a(I259
F1.0
tp396
a(I260
F1.0
tp397
a(I261
F1.0
tp398
a(I262
F1.0
tp399
a(I263
F1.0
tp400
a(I264
F1.0
tp401
a(I265
F1.0
tp402
a(I266
F1.0
tp403
a(I267
F1.0
tp404
a(I268
F1.0
tp405
a(I269
F1.0
tp406
a(I270
F1.0
tp407
a(I271
F1.0
tp408
a(I272
F1.0
tp409
a(I273
F1.0
tp410
a(I274
F1.0
tp411
a(I275
F1.0
tp412
a(I276
F1.0
tp413
a(I278
F1.0
tp414
a(I279
F1.0
tp415
a(I280
F1.0
tp416
a(I281
F1.0
tp417
a(I282
F1.0
tp418
a(I283
F1.0
tp419
a(I284
F1.0
tp420
a(I285
F1.0
tp421
a(I286
F1.0
tp422
a(I287
F1.0
tp423
a(I288
F1.0
tp424
a(I289
F1.0
tp425
a(I290
F1.0
tp426
a(I291
F1.0
tp427
a(I292
F1.0
tp428
a(I294
F1.0
tp429
a(I295
F1.0
tp430
a(I296
F1.0
tp431
a(I297
F1.0
tp432
a(I298
F1.0
tp433
a(I299
F1.0
tp434
a(I300
F1.0
tp435
a(I301
F1.0
tp436
a(I302
F1.0
tp437
a(I303
F1.0
tp438
a(I304
F1.0
tp439
a(I306
F1.0
tp440
a(I307
F1.0
tp441
a(I308
F1.0
tp442
a(I309
F1.0
tp443
a(I310
F1.0
tp444
a(I311
F1.0
tp445
a(I312
F1.0
tp446
a(I313
F1.0
tp447
a(I314
F1.0
tp448
a(I315
F1.0
tp449
a(I316
F1.0
tp450
a(I317
F1.0
tp451
a(I318
F1.0
tp452
a(I319
F1.0
tp453
a(I320
F1.0
tp454
a(I321
F1.0
tp455
a(I322
F1.0
tp456
a(I323
F1.0
tp457
a(I324
F1.0
tp458
a(I325
F1.0
tp459
a(I326
F1.0
tp460
a(I327
F1.0
tp461
a(I328
F1.0
tp462
a(I329
F1.0
tp463
a(I330
F1.0
tp464
a(I331
F1.0
tp465
a(I332
F1.0
tp466
a(I333
F1.0
tp467
a(I334
F1.0
tp468
a(I335
F1.0
tp469
a(I336
F1.0
tp470
a(I337
F1.0
tp471
a(I338
F1.0
tp472
a(I339
F1.0
tp473
a(I340
F1.0
tp474
a(I341
F1.0
tp475
a(I342
F1.0
tp476
a(I343
F1.0
tp477
a(I344
F1.0
tp478
a(I345
F1.0
tp479
a(I346
F1.0
tp480
a(I347
F1.0
tp481
a(I348
F1.0
tp482
a(I349
F1.0
tp483
a(I350
F1.0
tp484
a(I351
F1.0
tp485
a(I352
F1.0
tp486
a(I353
F1.0
tp487
a(I354
F1.0
tp488
a(I355
F1.0
tp489
a(I356
F1.0
tp490
a(I357
F1.0
tp491
a(I358
F1.0
tp492
a(I359
F1.0
tp493
a(I360
F1.0
tp494
a(I361
F1.0
tp495
a(I362
F1.0
tp496
a(I363
F1.0
tp497
a(I364
F1.0
tp498
a(I365
F1.0
tp499
a(I366
F1.0
tp500
a(I367
F1.0
tp501
a(I368
F1.0
tp502
a(I369
F1.0
tp503
a(I370
F1.0
tp504
a(I371
F1.0
tp505
a(I372
F1.0
tp506
a(I373
F1.0
tp507
a(I374
F1.0
tp508
a(I375
F1.0
tp509
a(I376
F1.0
tp510
a(I377
F1.0
tp511
a(I378
F1.0
tp512
a(I379
F1.0
tp513
a(I380
F1.0
tp514
a(I381
F1.0
tp515
a(I382
F1.0
tp516
a(I383
F1.0
tp517
a(I384
F1.0
tp518
a(I385
F1.0
tp519
a(I386
F1.0
tp520
a(I387
F1.0
tp521
a(I388
F1.0
tp522
a(I389
F1.0
tp523
a(I390
F1.0
tp524
a(I391
F1.0
tp525
a(I393
F1.0
tp526
a(I396
F1.0
tp527
a(I397
F1.0
tp528
a(I399
F1.0
tp529
a(I402
F1.0
tp530
a(I403
F1.0
tp531
a(I404
F1.0
tp532
a(I405
F1.0
tp533
a(I406
F1.0
tp534
a(I407
F1.0
tp535
a(I408
F1.0
tp536
a(I409
F1.0
tp537
a(I410
F1.0
tp538
a(I411
F1.0
tp539
a(I412
F1.0
tp540
a(I413
F1.0
tp541
a(I414
F1.0
tp542
a(I415
F1.0
tp543
a(I416
F1.0
tp544
a(I417
F1.0
tp545
a(I418
F1.0
tp546
a(I419
F1.0
tp547
a(I420
F1.0
tp548
a(I421
F1.0
tp549
a(I422
F1.0
tp550
a(I423
F1.0
tp551
a(I424
F1.0
tp552
a(I425
F1.0
tp553
a(I426
F1.0
tp554
a(I427
F1.0
tp555
a(I428
F1.0
tp556
a(I429
F1.0
tp557
a(I430
F1.0
tp558
a(I431
F1.0
tp559
a(I432
F1.0
tp560
a(I433
F1.0
tp561
a(I434
F1.0
tp562
a(I435
F1.0
tp563
a(I436
F1.0
tp564
a(I437
F1.0
tp565
a(I438
F1.0
tp566
a(I439
F1.0
tp567
a(I440
F1.0
tp568
a(I441
F1.0
tp569
a(I442
F1.0
tp570
a(I443
F1.0
tp571
a(I444
F1.0
tp572
a(I445
F1.0
tp573
a(I446
F1.0
tp574
a(I447
F1.0
tp575
a(I448
F1.0
tp576
a(I449
F1.0
tp577
a(I450
F1.0
tp578
a(I451
F1.0
tp579
a(I452
F1.0
tp580
a(I453
F1.0
tp581
a(I454
F1.0
tp582
a(I455
F1.0
tp583
a(I456
F1.0
tp584
a(I457
F1.0
tp585
a(I458
F1.0
tp586
a(I459
F1.0
tp587
a(I460
F1.0
tp588
a(I461
F1.0
tp589
a(I462
F1.0
tp590
a(I463
F1.0
tp591
a(I464
F1.0
tp592
a(I465
F1.0
tp593
a(I466
F1.0
tp594
a(I467
F1.0
tp595
a(I468
F1.0
tp596
a(I469
F1.0
tp597
a(I470
F1.0
tp598
a(I471
F1.0
tp599
a(I472
F1.0
tp600
a(I473
F1.0
tp601
a(I474
F1.0
tp602
a(I475
F1.0
tp603
a(I476
F1.0
tp604
a(I477
F1.0
tp605
a(I479
F1.0
tp606
a(I480
F1.0
tp607
a(I481
F1.0
tp608
a(I482
F1.0
tp609
a(I483
F1.0
tp610
a(I484
F1.0
tp611
a(I485
F1.0
tp612
a(I486
F1.0
tp613
a(I487
F1.0
tp614
a(I488
F1.0
tp615
a(I489
F1.0
tp616
a(I490
F1.0
tp617
a(I491
F1.0
tp618
a(I492
F1.0
tp619
a(I493
F1.0
tp620
a(I494
F1.0
tp621
a(I495
F1.0
tp622
a(I496
F1.0
tp623
a(I497
F1.0
tp624
a(I498
F1.0
tp625
a(I499
F1.0
tp626
a(I500
F1.0
tp627
a(I501
F1.0
tp628
a(I502
F1.0
tp629
a(I503
F1.0
tp630
a(I504
F1.0
tp631
a(I505
F1.0
tp632
a(I506
F1.0
tp633
a(I507
F1.0
tp634
a(I508
F1.0
tp635
a(I509
F1.0
tp636
a(I510
F1.0
tp637
a(I511
F1.0
tp638
a(I512
F1.0
tp639
a(I513
F1.0
tp640
a(I514
F1.0
tp641
a(I515
F1.0
tp642
a(I516
F1.0
tp643
a(I517
F1.0
tp644
a(I518
F1.0
tp645
a(I519
F1.0
tp646
a(I520
F1.0
tp647
a(I521
F1.0
tp648
a(I522
F1.0
tp649
a(I523
F1.0
tp650
a(I524
F1.0
tp651
a(I525
F1.0
tp652
a(I526
F1.0
tp653
a(I527
F1.0
tp654
a(I528
F1.0
tp655
a(I529
F1.0
tp656
a(I530
F1.0
tp657
a(I531
F1.0
tp658
a(I532
F1.0
tp659
a(I533
F1.0
tp660
a(I534
F1.0
tp661
a(I535
F1.0
tp662
a(I536
F1.0
tp663
a(I537
F1.0
tp664
a(I538
F1.0
tp665
a(I539
F1.0
tp666
a(I540
F1.0
tp667
a(I541
F1.0
tp668
a(I542
F1.0
tp669
a(I543
F1.0
tp670
a(I544
F1.0
tp671
a(I545
F1.0
tp672
a(I546
F1.0
tp673
a(I547
F1.0
tp674
a(I548
F1.0
tp675
a(I549
F1.0
tp676
a(I551
F1.0
tp677
a(I552
F1.0
tp678
a(I553
F1.0
tp679
a(I554
F1.0
tp680
a(I556
F1.0
tp681
a(I557
F1.0
tp682
a(I558
F1.0
tp683
a(I559
F1.0
tp684
a(I560
F1.0
tp685
a(I561
F1.0
tp686
a(I562
F1.0
tp687
a(I563
F1.0
tp688
a(I564
F1.0
tp689
a(I565
F1.0
tp690
a(I566
F1.0
tp691
a(I567
F1.0
tp692
a(I568
F1.0
tp693
a(I569
F1.0
tp694
a(I570
F1.0
tp695
a(I571
F1.0
tp696
a(I572
F1.0
tp697
a(I574
F1.0
tp698
a(I575
F1.0
tp699
a(I576
F1.0
tp700
a(I577
F1.0
tp701
a(I578
F1.0
tp702
a(I579
F1.0
tp703
a(I580
F1.0
tp704
a(I581
F1.0
tp705
a(I582
F1.0
tp706
a(I583
F1.0
tp707
a(I584
F1.0
tp708
a(I585
F1.0
tp709
a(I586
F1.0
tp710
a(I587
F1.0
tp711
a(I588
F1.0
tp712
a(I589
F1.0
tp713
a(I590
F1.0
tp714
a(I591
F1.0
tp715
a(I592
F1.0
tp716
a(I593
F1.0
tp717
a(I594
F1.0
tp718
a(I595
F1.0
tp719
a(I596
F1.0
tp720
a(I597
F1.0
tp721
a(I598
F1.0
tp722
a(I599
F1.0
tp723
a(I600
F1.0
tp724
a(I601
F1.0
tp725
a(I602
F1.0
tp726
a(I603
F1.0
tp727
a(I604
F1.0
tp728
a(I605
F1.0
tp729
a(I606
F1.0
tp730
a(I607
F1.0
tp731
a(I608
F1.0
tp732
a(I609
F1.0
tp733
a(I610
F1.0
tp734
a(I611
F1.0
tp735
a(I612
F1.0
tp736
a(I613
F1.0
tp737
a(I614
F1.0
tp738
a(I615
F1.0
tp739
a(I616
F1.0
tp740
a(I617
F1.0
tp741
a(I618
F1.0
tp742
a(I619
F1.0
tp743
a(I620
F1.0
tp744
a(I621
F1.0
tp745
a(I622
F1.0
tp746
a(I623
F1.0
tp747
a(I624
F1.0
tp748
a(I625
F1.0
tp749
a(I626
F1.0
tp750
a(I627
F1.0
tp751
a(I628
F1.0
tp752
a(I629
F1.0
tp753
a(I630
F1.0
tp754
a(I631
F1.0
tp755
a(I632
F1.0
tp756
a(I633
F1.0
tp757
a(I634
F1.0
tp758
a(I635
F1.0
tp759
a(I636
F1.0
tp760
a(I637
F1.0
tp761
a(I638
F1.0
tp762
a(I639
F1.0
tp763
a(I640
F1.0
tp764
a(I641
F1.0
tp765
a(I642
F1.0
tp766
a(I643
F1.0
tp767
a(I644
F1.0
tp768
a(I645
F1.0
tp769
a(I646
F1.0
tp770
a(I647
F1.0
tp771
a(I648
F1.0
tp772
a(I649
F1.0
tp773
a(I650
F1.0
tp774
a(I652
F1.0
tp775
a(I653
F1.0
tp776
a(I654
F1.0
tp777
a(I655
F1.0
tp778
a(I656
F1.0
tp779
a(I657
F1.0
tp780
a(I658
F1.0
tp781
a(I659
F1.0
tp782
a(I660
F1.0
tp783
a(I661
F1.0
tp784
a(I662
F1.0
tp785
a(I663
F1.0
tp786
a(I664
F1.0
tp787
a(I665
F1.0
tp788
a(I666
F1.0
tp789
a(I667
F1.0
tp790
a(I668
F1.0
tp791
a(I669
F1.0
tp792
a(I670
F1.0
tp793
a(I671
F1.0
tp794
a(I672
F1.0
tp795
a(I673
F1.0
tp796
a(I674
F1.0
tp797
a(I675
F1.0
tp798
a(I676
F1.0
tp799
a(I677
F1.0
tp800
a(I678
F1.0
tp801
a(I679
F1.0
tp802
a(I680
F1.0
tp803
a(I681
F1.0
tp804
a(I682
F1.0
tp805
a(I683
F1.0
tp806
a(I684
F1.0
tp807
a(I685
F1.0
tp808
a(I686
F1.0
tp809
a(I687
F1.0
tp810
a(I688
F1.0
tp811
a(I689
F1.0
tp812
a(I690
F1.0
tp813
a(I691
F1.0
tp814
a(I692
F1.0
tp815
a(I693
F1.0
tp816
a(I694
F1.0
tp817
a(I695
F1.0
tp818
a(I697
F1.0
tp819
a(I698
F1.0
tp820
a(I700
F1.0
tp821
a(I701
F1.0
tp822
a(I702
F1.0
tp823
a(I703
F1.0
tp824
a(I704
F1.0
tp825
a(I706
F1.0
tp826
a(I707
F1.0
tp827
a(I708
F1.0
tp828
a(I709
F1.0
tp829
a(I710
F1.0
tp830
a(I711
F1.0
tp831
a(I712
F1.0
tp832
a(I713
F1.0
tp833
a(I714
F1.0
tp834
a(I715
F1.0
tp835
a(I716
F1.0
tp836
a(I717
F1.0
tp837
a(I718
F1.0
tp838
a(I719
F1.0
tp839
a(I721
F1.0
tp840
a(I722
F1.0
tp841
a(I723
F1.0
tp842
a(I724
F1.0
tp843
a(I725
F1.0
tp844
a(I726
F1.0
tp845
a(I727
F1.0
tp846
a(I728
F1.0
tp847
a(I729
F1.0
tp848
a(I730
F1.0
tp849
a(I731
F1.0
tp850
a(I732
F1.0
tp851
a(I733
F1.0
tp852
a(I734
F1.0
tp853
a(I735
F1.0
tp854
a(I736
F1.0
tp855
a(I737
F1.0
tp856
a(I738
F1.0
tp857
a(I739
F1.0
tp858
a(I743
F1.0
tp859
a(I744
F1.0
tp860
a(I745
F1.0
tp861
a(I747
F1.0
tp862
a(I749
F1.0
tp863
a(I750
F1.0
tp864
a(I751
F1.0
tp865
a(I752
F1.0
tp866
a(I753
F1.0
tp867
a(I754
F1.0
tp868
a(I755
F1.0
tp869
a(I756
F1.0
tp870
a(I757
F1.0
tp871
a(I758
F1.0
tp872
a(I759
F1.0
tp873
a(I760
F1.0
tp874
a(I761
F1.0
tp875
a(I762
F1.0
tp876
a(I763
F1.0
tp877
a(I764
F1.0
tp878
a(I765
F1.0
tp879
a(I767
F1.0
tp880
a(I768
F1.0
tp881
a(I769
F1.0
tp882
a(I770
F1.0
tp883
a(I771
F1.0
tp884
a(I772
F1.0
tp885
a(I773
F1.0
tp886
a(I774
F1.0
tp887
a(I775
F1.0
tp888
a(I776
F1.0
tp889
a(I777
F1.0
tp890
a(I778
F1.0
tp891
a(I779
F1.0
tp892
a(I780
F1.0
tp893
a(I781
F1.0
tp894
a(I782
F1.0
tp895
a(I783
F1.0
tp896
a(I784
F1.0
tp897
a(I785
F1.0
tp898
a(I786
F1.0
tp899
a(I787
F1.0
tp900
a(I788
F1.0
tp901
a(I789
F1.0
tp902
a(I790
F1.0
tp903
a(I791
F1.0
tp904
a(I792
F1.0
tp905
a(I793
F1.0
tp906
a(I794
F1.0
tp907
a(I795
F1.0
tp908
a(I796
F1.0
tp909
a(I797
F1.0
tp910
a(I798
F1.0
tp911
a(I799
F1.0
tp912
a(I800
F1.0
tp913
a(I801
F1.0
tp914
a(I802
F1.0
tp915
a(I803
F1.0
tp916
a(I804
F1.0
tp917
a(I805
F1.0
tp918
a(I806
F1.0
tp919
a(I807
F1.0
tp920
a(I808
F1.0
tp921
a(I809
F1.0
tp922
a(I810
F1.0
tp923
a(I811
F1.0
tp924
a(I812
F1.0
tp925
a(I813
F1.0
tp926
a(I814
F1.0
tp927
a(I815
F1.0
tp928
a(I816
F1.0
tp929
a(I817
F1.0
tp930
a(I818
F1.0
tp931
a(I819
F1.0
tp932
a(I820
F1.0
tp933
a(I821
F1.0
tp934
a(I822
F1.0
tp935
a(I823
F1.0
tp936
a(I824
F1.0
tp937
a(I825
F1.0
tp938
a(I826
F1.0
tp939
a(I827
F1.0
tp940
a(I828
F1.0
tp941
a(I829
F1.0
tp942
a(I830
F1.0
tp943
a(I831
F1.0
tp944
a(I832
F1.0
tp945
a(I833
F1.0
tp946
a(I834
F1.0
tp947
a(I835
F1.0
tp948
a(I836
F1.0
tp949
a(I837
F1.0
tp950
a(I838
F1.0
tp951
a(I839
F1.0
tp952
a(I840
F1.0
tp953
a(I841
F1.0
tp954
a(I842
F1.0
tp955
a(I843
F1.0
tp956
a(I844
F1.0
tp957
a(I845
F1.0
tp958
a(I846
F1.0
tp959
a(I847
F1.0
tp960
a(I848
F1.0
tp961
a(I849
F1.0
tp962
a(I850
F1.0
tp963
a(I851
F1.0
tp964
a(I852
F1.0
tp965
a(I853
F1.0
tp966
a(I854
F1.0
tp967
a(I855
F1.0
tp968
a(I856
F1.0
tp969
a(I857
F1.0
tp970
a(I858
F1.0
tp971
a(I859
F1.0
tp972
a(I860
F1.0
tp973
a(I861
F1.0
tp974
a(I862
F1.0
tp975
a(I863
F1.0
tp976
a(I864
F1.0
tp977
a(I865
F1.0
tp978
a(I866
F1.0
tp979
a(I867
F1.0
tp980
a(I868
F1.0
tp981
a(I869
F1.0
tp982
a(I870
F1.0
tp983
a(I871
F1.0
tp984
a(I872
F1.0
tp985
a(I873
F1.0
tp986
a(I874
F1.0
tp987
a(I875
F1.0
tp988
a(I876
F1.0
tp989
a(I877
F1.0
tp990
a(I878
F1.0
tp991
a(I880
F1.0
tp992
a(I881
F1.0
tp993
a(I882
F1.0
tp994
a(I883
F1.0
tp995
a(I884
F1.0
tp996
a(I885
F1.0
tp997
a(I886
F1.0
tp998
a(I887
F1.0
tp999
a(I888
F1.0
tp1000
a(I889
F1.0
tp1001
a(I890
F1.0
tp1002
a(I891
F1.0
tp1003
a(I892
F1.0
tp1004
a(I893
F1.0
tp1005
a(I894
F1.0
tp1006
a(I896
F1.0
tp1007
a(I897
F1.0
tp1008
a(I898
F1.0
tp1009
a(I899
F1.0
tp1010
a(I900
F1.0
tp1011
a(I901
F1.0
tp1012
a(I902
F1.0
tp1013
a(I903
F1.0
tp1014
a(I904
F1.0
tp1015
a(I905
F1.0
tp1016
a(I906
F1.0
tp1017
a(I907
F1.0
tp1018
a(I908
F1.0
tp1019
a(I909
F1.0
tp1020
a(I910
F1.0
tp1021
a(I914
F1.0
tp1022
a(I916
F1.0
tp1023
a(I917
F1.0
tp1024
a(I918
F1.0
tp1025
a(I919
F1.0
tp1026
a(I920
F1.0
tp1027
a(I921
F1.0
tp1028
a(I922
F1.0
tp1029
a(I923
F1.0
tp1030
a(I924
F1.0
tp1031
a(I925
F1.0
tp1032
a(I926
F1.0
tp1033
a(I927
F1.0
tp1034
a(I928
F1.0
tp1035
a(I930
F1.0
tp1036
a(I931
F1.0
tp1037
a(I932
F1.0
tp1038
a(I933
F1.0
tp1039
a(I934
F1.0
tp1040
a(I935
F1.0
tp1041
a(I936
F1.0
tp1042
a(I937
F1.0
tp1043
a(I938
F1.0
tp1044
a(I939
F1.0
tp1045
a(I940
F1.0
tp1046
a(I941
F1.0
tp1047
a(I942
F1.0
tp1048
a(I943
F1.0
tp1049
a(I944
F1.0
tp1050
a(I945
F1.0
tp1051
a(I946
F1.0
tp1052
a(I947
F1.0
tp1053
a(I948
F1.0
tp1054
a(I949
F1.0
tp1055
a(I950
F1.0
tp1056
a(I951
F1.0
tp1057
a(I952
F1.0
tp1058
a(I953
F1.0
tp1059
a(I954
F1.0
tp1060
a(I955
F1.0
tp1061
a(I956
F1.0
tp1062
a(I957
F1.0
tp1063
a(I958
F1.0
tp1064
a(I959
F1.0
tp1065
a(I960
F1.0
tp1066
a(I961
F1.0
tp1067
a(I962
F1.0
tp1068
a(I963
F1.0
tp1069
a(I964
F1.0
tp1070
a(I965
F1.0
tp1071
a(I966
F1.0
tp1072
a(I967
F1.0
tp1073
a(I968
F1.0
tp1074
a(I969
F1.0
tp1075
a(I970
F1.0
tp1076
a(I971
F1.0
tp1077
a(I972
F1.0
tp1078
a(I973
F1.0
tp1079
a(I975
F1.0
tp1080
a(I976
F1.0
tp1081
a(I977
F1.0
tp1082
a(I979
F1.0
tp1083
a(I980
F1.0
tp1084
a(I981
F1.0
tp1085
a(I982
F1.0
tp1086
a(I983
F1.0
tp1087
a(I984
F1.0
tp1088
a(I985
F1.0
tp1089
a(I986
F1.0
tp1090
a(I987
F1.0
tp1091
a(I988
F1.0
tp1092
a(I989
F1.0
tp1093
a(I990
F1.0
tp1094
a(I991
F1.0
tp1095
a(I994
F1.0
tp1096
a(I995
F1.0
tp1097
a(I996
F1.0
tp1098
a(I997
F1.0
tp1099
a(I998
F1.0
tp1100
a(I999
F1.0
tp1101
a(I1000
F1.0
tp1102
a(I1001
F1.0
tp1103
a(I1002
F1.0
tp1104
a(I1003
F1.0
tp1105
a(I1004
F1.0
tp1106
a(I1005
F1.0
tp1107
a(I1006
F1.0
tp1108
a(I1007
F1.0
tp1109
a(I1008
F1.0
tp1110
a(I1009
F1.0
tp1111
a(I1010
F1.0
tp1112
a(I1011
F1.0
tp1113
a(I1012
F1.0
tp1114
a(I1013
F1.0
tp1115
a(I1014
F1.0
tp1116
a(I1015
F1.0
tp1117
a(I1016
F1.0
tp1118
a(I1017
F1.0
tp1119
a(I1018
F1.0
tp1120
a(I1020
F1.0
tp1121
a(I1021
F1.0
tp1122
a(I1022
F1.0
tp1123
a(I1023
F1.0
tp1124
a(I1024
F1.0
tp1125
a(I1025
F1.0
tp1126
a(I1026
F1.0
tp1127
a(I1027
F1.0
tp1128
a(I1028
F1.0
tp1129
a(I1029
F1.0
tp1130
a(I1030
F1.0
tp1131
a(I1031
F1.0
tp1132
a(I1032
F1.0
tp1133
a(I1033
F1.0
tp1134
a(I1035
F1.0
tp1135
a(I1037
F1.0
tp1136
a(I1041
F1.0
tp1137
a(I1042
F1.0
tp1138
a(I1043
F1.0
tp1139
a(I1044
F1.0
tp1140
a(I1046
F1.0
tp1141
a(I1047
F1.0
tp1142
a(I1048
F1.0
tp1143
a(I1049
F1.0
tp1144
a(I1050
F1.0
tp1145
a(I1051
F1.0
tp1146
a(I1052
F1.0
tp1147
a(I1053
F1.0
tp1148
a(I1054
F1.0
tp1149
a(I1056
F1.0
tp1150
a(I1057
F1.0
tp1151
a(I1058
F1.0
tp1152
a(I1059
F1.0
tp1153
a(I1060
F1.0
tp1154
a(I1062
F1.0
tp1155
a(I1063
F1.0
tp1156
a(I1064
F1.0
tp1157
a(I1066
F1.0
tp1158
a(I1067
F1.0
tp1159
a(I1068
F1.0
tp1160
a(I1070
F1.0
tp1161
a(I1071
F1.0
tp1162
a(I1072
F1.0
tp1163
a(I1073
F1.0
tp1164
a(I1074
F1.0
tp1165
a(I1075
F1.0
tp1166
a(I1076
F1.0
tp1167
a(I1077
F1.0
tp1168
a(I1078
F1.0
tp1169
a(I1079
F1.0
tp1170
a(I1080
F1.0
tp1171
a(I1081
F1.0
tp1172
a(I1082
F1.0
tp1173
a(I1083
F1.0
tp1174
a(I1084
F1.0
tp1175
a(I1085
F1.0
tp1176
a(I1086
F1.0
tp1177
a(I1087
F1.0
tp1178
a(I1088
F1.0
tp1179
a(I1089
F1.0
tp1180
a(I1090
F1.0
tp1181
a(I1091
F1.0
tp1182
a(I1092
F1.0
tp1183
a(I1093
F1.0
tp1184
a(I1094
F1.0
tp1185
a(I1095
F1.0
tp1186
a(I1096
F1.0
tp1187
a(I1097
F1.0
tp1188
a(I1098
F1.0
tp1189
a(I1099
F1.0
tp1190
a(I1100
F1.0
tp1191
a(I1101
F1.0
tp1192
a(I1102
F1.0
tp1193
a(I1103
F1.0
tp1194
a(I1104
F1.0
tp1195
a(I1105
F1.0
tp1196
a(I1106
F1.0
tp1197
a(I1107
F1.0
tp1198
a(I1110
F1.0
tp1199
a(I1111
F1.0
tp1200
a(I1112
F1.0
tp1201
a(I1113
F1.0
tp1202
a(I1114
F1.0
tp1203
a(I1115
F1.0
tp1204
a(I1116
F1.0
tp1205
a(I1117
F1.0
tp1206
a(I1118
F1.0
tp1207
a(I1119
F1.0
tp1208
a(I1120
F1.0
tp1209
a(I1121
F1.0
tp1210
a(I1122
F1.0
tp1211
a(I1123
F1.0
tp1212
a(I1124
F1.0
tp1213
a(I1125
F1.0
tp1214
a(I1126
F1.0
tp1215
a(I1127
F1.0
tp1216
a(I1128
F1.0
tp1217
a(I1129
F1.0
tp1218
a(I1130
F1.0
tp1219
a(I1132
F1.0
tp1220
a(I1133
F1.0
tp1221
a(I1134
F1.0
tp1222
a(I1135
F1.0
tp1223
a(I1136
F1.0
tp1224
a(I1137
F1.0
tp1225
a(I1138
F1.0
tp1226
a(I1139
F1.0
tp1227
a(I1140
F1.0
tp1228
a(I1141
F1.0
tp1229
a(I1142
F1.0
tp1230
a(I1143
F1.0
tp1231
a(I1144
F1.0
tp1232
a(I1145
F1.0
tp1233
a(I1146
F1.0
tp1234
a(I1147
F1.0
tp1235
a(I1148
F1.0
tp1236
a(I1149
F1.0
tp1237
a(I1150
F1.0
tp1238
a(I1151
F1.0
tp1239
a(I1152
F1.0
tp1240
a(I1153
F1.0
tp1241
a(I1154
F1.0
tp1242
a(I1155
F1.0
tp1243
a(I1156
F1.0
tp1244
a(I1157
F1.0
tp1245
a(I1158
F1.0
tp1246
a(I1159
F1.0
tp1247
a(I1160
F1.0
tp1248
a(I1161
F1.0
tp1249
a(I1162
F1.0
tp1250
a(I1163
F1.0
tp1251
a(I1164
F1.0
tp1252
a(I1165
F1.0
tp1253
a(I1166
F1.0
tp1254
a(I1167
F1.0
tp1255
a(I1168
F1.0
tp1256
a(I1169
F1.0
tp1257
a(I1170
F1.0
tp1258
a(I1171
F1.0
tp1259
a(I1172
F1.0
tp1260
a(I1173
F1.0
tp1261
a(I1174
F1.0
tp1262
a(I1175
F1.0
tp1263
a(I1176
F1.0
tp1264
a(I1177
F1.0
tp1265
a(I1178
F1.0
tp1266
a(I1179
F1.0
tp1267
a(I1180
F1.0
tp1268
a(I1181
F1.0
tp1269
a(I1182
F1.0
tp1270
a(I1183
F1.0
tp1271
a(I1184
F1.0
tp1272
a(I1185
F1.0
tp1273
a(I1186
F1.0
tp1274
a(I1187
F1.0
tp1275
a(I1188
F1.0
tp1276
a(I1189
F1.0
tp1277
a(I1190
F1.0
tp1278
a(I1191
F1.0
tp1279
a(I1192
F1.0
tp1280
a(I1193
F1.0
tp1281
a(I1194
F1.0
tp1282
a(I1195
F1.0
tp1283
a(I1196
F1.0
tp1284
a(I1197
F1.0
tp1285
a(I1198
F1.0
tp1286
a(I1199
F1.0
tp1287
a(I1200
F1.0
tp1288
a(I1201
F1.0
tp1289
a(I1202
F1.0
tp1290
a(I1203
F1.0
tp1291
a(I1204
F1.0
tp1292
a(I1205
F1.0
tp1293
a(I1206
F1.0
tp1294
a(I1207
F1.0
tp1295
a(I1208
F1.0
tp1296
a(I1209
F1.0
tp1297
a(I1210
F1.0
tp1298
a(I1211
F1.0
tp1299
a(I1216
F1.0
tp1300
a(I1217
F1.0
tp1301
a(I1218
F1.0
tp1302
a(I1220
F1.0
tp1303
a(I1221
F1.0
tp1304
a(I1222
F1.0
tp1305
a(I1223
F1.0
tp1306
a(I1224
F1.0
tp1307
a(I1225
F1.0
tp1308
a(I1226
F1.0
tp1309
a(I1227
F1.0
tp1310
a(I1228
F1.0
tp1311
a(I1229
F1.0
tp1312
a(I1230
F1.0
tp1313
a(I1231
F1.0
tp1314
a(I1232
F1.0
tp1315
a(I1234
F1.0
tp1316
a(I1235
F1.0
tp1317
a(I1237
F1.0
tp1318
a(I1238
F1.0
tp1319
a(I1239
F1.0
tp1320
a(I1240
F1.0
tp1321
a(I1241
F1.0
tp1322
a(I1244
F1.0
tp1323
a(I1245
F1.0
tp1324
a(I1246
F1.0
tp1325
a(I1247
F1.0
tp1326
a(I1248
F1.0
tp1327
a(I1249
F1.0
tp1328
a(I1251
F1.0
tp1329
a(I1252
F1.0
tp1330
a(I1254
F1.0
tp1331
a(I1255
F1.0
tp1332
a(I1256
F1.0
tp1333
a(I1257
F1.0
tp1334
a(I1258
F1.0
tp1335
a(I1259
F1.0
tp1336
a(I1260
F1.0
tp1337
a(I1261
F1.0
tp1338
a(I1262
F1.0
tp1339
a(I1263
F1.0
tp1340
a(I1264
F1.0
tp1341
a(I1265
F1.0
tp1342
a(I1266
F1.0
tp1343
a(I1269
F1.0
tp1344
a(I1270
F1.0
tp1345
a(I1271
F1.0
tp1346
a(I1272
F1.0
tp1347
a(I1273
F1.0
tp1348
a(I1274
F1.0
tp1349
a(I1276
F1.0
tp1350
a(I1277
F1.0
tp1351
a(I1278
F1.0
tp1352
a(I1279
F1.0
tp1353
a(I1281
F1.0
tp1354
a(I1282
F1.0
tp1355
a(I1283
F1.0
tp1356
a(I1284
F1.0
tp1357
a(I1285
F1.0
tp1358
a(I1286
F1.0
tp1359
a(I1287
F1.0
tp1360
a(I1288
F1.0
tp1361
a(I1289
F1.0
tp1362
a(I1290
F1.0
tp1363
a(I1291
F1.0
tp1364
a(I1292
F1.0
tp1365
a(I1293
F1.0
tp1366
a(I1294
F1.0
tp1367
a(I1295
F1.0
tp1368
a(I1296
F1.0
tp1369
a(I1297
F1.0
tp1370
a(I1298
F1.0
tp1371
a(I1299
F1.0
tp1372
a(I1300
F1.0
tp1373
a(I1301
F1.0
tp1374
a(I1302
F1.0
tp1375
a(I1303
F1.0
tp1376
a(I1304
F1.0
tp1377
a(I1305
F1.0
tp1378
a(I1306
F1.0
tp1379
a(I1307
F1.0
tp1380
a(I1308
F1.0
tp1381
a(I1309
F1.0
tp1382
a(I1310
F1.0
tp1383
a(I1311
F1.0
tp1384
a(I1312
F1.0
tp1385
a(I1313
F1.0
tp1386
a(I1314
F1.0
tp1387
a(I1315
F1.0
tp1388
a(I1316
F1.0
tp1389
a(I1317
F1.0
tp1390
a(I1318
F1.0
tp1391
a(I1319
F1.0
tp1392
a(I1320
F1.0
tp1393
a(I1321
F1.0
tp1394
a(I1322
F1.0
tp1395
a(I1323
F1.0
tp1396
a(I1325
F1.0
tp1397
a(I1326
F1.0
tp1398
a(I1327
F1.0
tp1399
a(I1328
F1.0
tp1400
a(I1329
F1.0
tp1401
a(I1330
F1.0
tp1402
a(I1331
F1.0
tp1403
a(I1332
F1.0
tp1404
a(I1333
F1.0
tp1405
a(I1334
F1.0
tp1406
a(I1335
F1.0
tp1407
a(I1337
F1.0
tp1408
a(I1339
F1.0
tp1409
a(I1340
F1.0
tp1410
a(I1341
F1.0
tp1411
a(I1342
F1.0
tp1412
a(I1343
F1.0
tp1413
a(I1344
F1.0
tp1414
a(I1345
F1.0
tp1415
a(I1346
F1.0
tp1416
a(I1347
F1.0
tp1417
a(I1348
F1.0
tp1418
a(I1349
F1.0
tp1419
a(I1350
F1.0
tp1420
a(I1351
F1.0
tp1421
a(I1352
F1.0
tp1422
a(I1353
F1.0
tp1423
a(I1354
F1.0
tp1424
a(I1355
F1.0
tp1425
a(I1356
F1.0
tp1426
a(I1357
F1.0
tp1427
a(I1358
F1.0
tp1428
a(I1359
F1.0
tp1429
a(I1360
F1.0
tp1430
a(I1361
F1.0
tp1431
a(I1362
F1.0
tp1432
a(I1363
F1.0
tp1433
a(I1364
F1.0
tp1434
a(I1365
F1.0
tp1435
a(I1366
F1.0
tp1436
a(I1367
F1.0
tp1437
a(I1368
F1.0
tp1438
a(I1369
F1.0
tp1439
a(I1370
F1.0
tp1440
a(I1371
F1.0
tp1441
a(I1372
F1.0
tp1442
a(I1373
F1.0
tp1443
a(I1374
F1.0
tp1444
a(I1375
F1.0
tp1445
a(I1376
F1.0
tp1446
a(I1377
F1.0
tp1447
a(I1378
F1.0
tp1448
a(I1379
F1.0
tp1449
a(I1380
F1.0
tp1450
a(I1381
F1.0
tp1451
a(I1382
F1.0
tp1452
a(I1383
F1.0
tp1453
a(I1384
F1.0
tp1454
a(I1385
F1.0
tp1455
a(I1386
F1.0
tp1456
a(I1387
F1.0
tp1457
a(I1388
F1.0
tp1458
a(I1389
F1.0
tp1459
a(I1390
F1.0
tp1460
a(I1391
F1.0
tp1461
a(I1392
F1.0
tp1462
a(I1393
F1.0
tp1463
a(I1394
F1.0
tp1464
a(I1395
F1.0
tp1465
a(I1396
F1.0
tp1466
a(I1397
F1.0
tp1467
a(I1398
F1.0
tp1468
a(I1399
F1.0
tp1469
a(I1400
F1.0
tp1470
a(I1401
F1.0
tp1471
a(I1402
F1.0
tp1472
a(I1403
F1.0
tp1473
a(I1404
F1.0
tp1474
a(I1405
F1.0
tp1475
a(I1406
F1.0
tp1476
a(I1407
F1.0
tp1477
a(I1408
F1.0
tp1478
a(I1409
F1.0
tp1479
a(I1410
F1.0
tp1480
a(I1411
F1.0
tp1481
a(I1412
F1.0
tp1482
a(I1413
F1.0
tp1483
a(I1414
F1.0
tp1484
a(I1415
F1.0
tp1485
a(I1416
F1.0
tp1486
a(I1417
F1.0
tp1487
a(I1418
F1.0
tp1488
a(I1419
F1.0
tp1489
a(I1420
F1.0
tp1490
a(I1421
F1.0
tp1491
a(I1422
F1.0
tp1492
a(I1423
F1.0
tp1493
a(I1424
F1.0
tp1494
a(I1425
F1.0
tp1495
a(I1426
F1.0
tp1496
a(I1427
F1.0
tp1497
a(I1428
F1.0
tp1498
a(I1429
F1.0
tp1499
a(I1430
F1.0
tp1500
a(I1431
F1.0
tp1501
a(I1432
F1.0
tp1502
a(I1433
F1.0
tp1503
a(I1434
F1.0
tp1504
a(I1435
F1.0
tp1505
a(I1436
F1.0
tp1506
a(I1437
F1.0
tp1507
a(I1438
F1.0
tp1508
a(I1439
F1.0
tp1509
a(I1441
F1.0
tp1510
a(I1442
F1.0
tp1511
a(I1443
F1.0
tp1512
a(I1444
F1.0
tp1513
a(I1445
F1.0
tp1514
a(I1446
F1.0
tp1515
a(I1447
F1.0
tp1516
a(I1448
F1.0
tp1517
a(I1449
F1.0
tp1518
a(I1450
F1.0
tp1519
a(I1451
F1.0
tp1520
a(I1452
F1.0
tp1521
a(I1453
F1.0
tp1522
a(I1454
F1.0
tp1523
a(I1455
F1.0
tp1524
a(I1456
F1.0
tp1525
a(I1457
F1.0
tp1526
a(I1458
F1.0
tp1527
a(I1459
F1.0
tp1528
a(I1460
F1.0
tp1529
a(I1461
F1.0
tp1530
a(I1462
F1.0
tp1531
a(I1463
F1.0
tp1532
a(I1464
F1.0
tp1533
a(I1465
F1.0
tp1534
a(I1466
F1.0
tp1535
a(I1467
F1.0
tp1536
a(I1468
F1.0
tp1537
a(I1469
F1.0
tp1538
a(I1470
F1.0
tp1539
a(I1471
F1.0
tp1540
a(I1472
F1.0
tp1541
a(I1473
F1.0
tp1542
a(I1474
F1.0
tp1543
a(I1475
F1.0
tp1544
a(I1476
F1.0
tp1545
a(I1477
F1.0
tp1546
a(I1478
F1.0
tp1547
a(I1479
F1.0
tp1548
a(I1480
F1.0
tp1549
a(I1481
F1.0
tp1550
a(I1482
F1.0
tp1551
a(I1483
F1.0
tp1552
a(I1484
F1.0
tp1553
a(I1485
F1.0
tp1554
a(I1486
F1.0
tp1555
a(I1487
F1.0
tp1556
a(I1488
F1.0
tp1557
a(I1489
F1.0
tp1558
a(I1490
F1.0
tp1559
a(I1491
F1.0
tp1560
a(I1492
F1.0
tp1561
a(I1493
F1.0
tp1562
a(I1494
F1.0
tp1563
a(I1495
F1.0
tp1564
a(I1496
F1.0
tp1565
a(I1497
F1.0
tp1566
a(I1498
F1.0
tp1567
a(I1499
F1.0
tp1568
a(I1500
F1.0
tp1569
a(I1502
F1.0
tp1570
a(I1503
F1.0
tp1571
a(I1504
F1.0
tp1572
a(I1505
F1.0
tp1573
a(I1506
F1.0
tp1574
a(I1507
F1.0
tp1575
a(I1508
F1.0
tp1576
a(I1509
F1.0
tp1577
a(I1510
F1.0
tp1578
a(I1512
F1.0
tp1579
a(I1513
F1.0
tp1580
a(I1514
F1.0
tp1581
a(I1515
F1.0
tp1582
a(I1516
F1.0
tp1583
a(I1517
F1.0
tp1584
a(I1518
F1.0
tp1585
a(I1519
F1.0
tp1586
a(I1520
F1.0
tp1587
a(I1521
F1.0
tp1588
a(I1522
F1.0
tp1589
a(I1523
F1.0
tp1590
a(I1524
F1.0
tp1591
a(I1525
F1.0
tp1592
a(I1526
F1.0
tp1593
a(I1527
F1.0
tp1594
a(I1528
F1.0
tp1595
a(I1529
F1.0
tp1596
a(I1530
F1.0
tp1597
a(I1531
F1.0
tp1598
a(I1532
F1.0
tp1599
a(I1533
F1.0
tp1600
a(I1534
F1.0
tp1601
a(I1535
F1.0
tp1602
a(I1536
F1.0
tp1603
a(I1539
F1.0
tp1604
a(I1542
F1.0
tp1605
a(I1543
F1.0
tp1606
a(I1544
F1.0
tp1607
a(I1545
F1.0
tp1608
a(I1546
F1.0
tp1609
a(I1547
F1.0
tp1610
a(I1548
F1.0
tp1611
a(I1549
F1.0
tp1612
a(I1550
F1.0
tp1613
a(I1551
F1.0
tp1614
a(I1552
F1.0
tp1615
a(I1553
F1.0
tp1616
a(I1554
F1.0
tp1617
a(I1557
F1.0
tp1618
a(I1560
F1.0
tp1619
a(I1561
F1.0
tp1620
a(I1562
F1.0
tp1621
a(I1563
F1.0
tp1622
a(I1564
F1.0
tp1623
a(I1565
F1.0
tp1624
a(I1567
F1.0
tp1625
a(I1568
F1.0
tp1626
a(I1569
F1.0
tp1627
a(I1570
F1.0
tp1628
a(I1571
F1.0
tp1629
a(I1572
F1.0
tp1630
a(I1574
F1.0
tp1631
a(I1575
F1.0
tp1632
a(I1576
F1.0
tp1633
a(I1577
F1.0
tp1634
a(I1578
F1.0
tp1635
a(I1579
F1.0
tp1636
a(I1580
F1.0
tp1637
a(I1581
F1.0
tp1638
a(I1582
F1.0
tp1639
a(I1583
F1.0
tp1640
a(I1584
F1.0
tp1641
a(I1585
F1.0
tp1642
a(I1586
F1.0
tp1643
a(I1587
F1.0
tp1644
a(I1588
F1.0
tp1645
a(I1589
F1.0
tp1646
a(I1590
F1.0
tp1647
a(I1592
F1.0
tp1648
a(I1593
F1.0
tp1649
a(I1594
F1.0
tp1650
a(I1595
F1.0
tp1651
a(I1596
F1.0
tp1652
a(I1597
F1.0
tp1653
a(I1598
F1.0
tp1654
a(I1599
F1.0
tp1655
a(I1600
F1.0
tp1656
a(I1601
F1.0
tp1657
a(I1602
F1.0
tp1658
a(I1603
F1.0
tp1659
a(I1604
F1.0
tp1660
a(I1606
F1.0
tp1661
a(I1607
F1.0
tp1662
a(I1608
F1.0
tp1663
a(I1609
F1.0
tp1664
a(I1610
F1.0
tp1665
a(I1611
F1.0
tp1666
a(I1612
F1.0
tp1667
a(I1613
F1.0
tp1668
a(I1615
F1.0
tp1669
a(I1616
F1.0
tp1670
a(I1617
F1.0
tp1671
a(I1618
F1.0
tp1672
a(I1619
F1.0
tp1673
a(I1620
F1.0
tp1674
a(I1621
F1.0
tp1675
a(I1622
F1.0
tp1676
a(I1623
F1.0
tp1677
a(I1624
F1.0
tp1678
a(I1625
F1.0
tp1679
a(I1627
F1.0
tp1680
a(I1628
F1.0
tp1681
a(I1629
F1.0
tp1682
a(I1630
F1.0
tp1683
a(I1631
F1.0
tp1684
a(I1632
F1.0
tp1685
a(I1633
F1.0
tp1686
a(I1634
F1.0
tp1687
a(I1635
F1.0
tp1688
a(I1636
F1.0
tp1689
a(I1637
F1.0
tp1690
a(I1638
F1.0
tp1691
a(I1639
F1.0
tp1692
a(I1640
F1.0
tp1693
a(I1641
F1.0
tp1694
a(I1642
F1.0
tp1695
a(I1643
F1.0
tp1696
a(I1644
F1.0
tp1697
a(I1645
F1.0
tp1698
a(I1646
F1.0
tp1699
a(I1648
F1.0
tp1700
a(I1651
F1.0
tp1701
a(I1652
F1.0
tp1702
a(I1653
F1.0
tp1703
a(I1656
F1.0
tp1704
a(I1658
F1.0
tp1705
a(I1659
F1.0
tp1706
a(I1660
F1.0
tp1707
a(I1662
F1.0
tp1708
a(I1669
F1.0
tp1709
a(I1671
F1.0
tp1710
a(I1672
F1.0
tp1711
a(I1673
F1.0
tp1712
a(I1674
F1.0
tp1713
a(I1676
F1.0
tp1714
a(I1677
F1.0
tp1715
a(I1678
F1.0
tp1716
a(I1679
F1.0
tp1717
a(I1680
F1.0
tp1718
a(I1681
F1.0
tp1719
a(I1682
F1.0
tp1720
a(I1683
F1.0
tp1721
a(I1684
F1.0
tp1722
a(I1685
F1.0
tp1723
a(I1686
F1.0
tp1724
a(I1687
F1.0
tp1725
a(I1688
F1.0
tp1726
a(I1689
F1.0
tp1727
a(I1690
F1.0
tp1728
a(I1691
F1.0
tp1729
a(I1692
F1.0
tp1730
a(I1693
F1.0
tp1731
a(I1694
F1.0
tp1732
a(I1695
F1.0
tp1733
a(I1696
F1.0
tp1734
a(I1697
F1.0
tp1735
a(I1698
F1.0
tp1736
a(I1699
F1.0
tp1737
a(I1700
F1.0
tp1738
a(I1701
F1.0
tp1739
a(I1702
F1.0
tp1740
a(I1703
F1.0
tp1741
a(I1704
F1.0
tp1742
a(I1705
F1.0
tp1743
a(I1706
F1.0
tp1744
a(I1707
F1.0
tp1745
a(I1709
F1.0
tp1746
a(I1710
F1.0
tp1747
a(I1711
F1.0
tp1748
a(I1712
F1.0
tp1749
a(I1713
F1.0
tp1750
a(I1714
F1.0
tp1751
a(I1717
F1.0
tp1752
a(I1718
F1.0
tp1753
a(I1719
F1.0
tp1754
a(I1721
F1.0
tp1755
a(I1722
F1.0
tp1756
a(I1724
F1.0
tp1757
a(I1725
F1.0
tp1758
a(I1726
F1.0
tp1759
a(I1727
F1.0
tp1760
a(I1728
F1.0
tp1761
a(I1729
F1.0
tp1762
a(I1730
F1.0
tp1763
a(I1731
F1.0
tp1764
a(I1732
F1.0
tp1765
a(I1733
F1.0
tp1766
a(I1734
F1.0
tp1767
a(I1735
F1.0
tp1768
a(I1736
F1.0
tp1769
a(I1737
F1.0
tp1770
a(I1738
F1.0
tp1771
a(I1739
F1.0
tp1772
a(I1740
F1.0
tp1773
a(I1742
F1.0
tp1774
a(I1743
F1.0
tp1775
a(I1744
F1.0
tp1776
a(I1745
F1.0
tp1777
a(I1746
F1.0
tp1778
a(I1747
F1.0
tp1779
a(I1749
F1.0
tp1780
a(I1750
F1.0
tp1781
a(I1751
F1.0
tp1782
a(I1755
F1.0
tp1783
a(I1756
F1.0
tp1784
a(I1759
F1.0
tp1785
a(I1763
F1.0
tp1786
a(I1764
F1.0
tp1787
a(I1766
F1.0
tp1788
a(I1771
F1.0
tp1789
a(I1772
F1.0
tp1790
a(I1774
F1.0
tp1791
a(I1775
F1.0
tp1792
a(I1776
F1.0
tp1793
a(I1777
F1.0
tp1794
a(I1778
F1.0
tp1795
a(I1779
F1.0
tp1796
a(I1780
F1.0
tp1797
a(I1782
F1.0
tp1798
a(I1783
F1.0
tp1799
a(I1784
F1.0
tp1800
a(I1785
F1.0
tp1801
a(I1786
F1.0
tp1802
a(I1787
F1.0
tp1803
a(I1788
F1.0
tp1804
a(I1789
F1.0
tp1805
a(I1790
F1.0
tp1806
a(I1791
F1.0
tp1807
a(I1792
F1.0
tp1808
a(I1793
F1.0
tp1809
a(I1794
F1.0
tp1810
a(I1795
F1.0
tp1811
a(I1796
F1.0
tp1812
a(I1797
F1.0
tp1813
a(I1798
F1.0
tp1814
a(I1799
F1.0
tp1815
a(I1800
F1.0
tp1816
a(I1801
F1.0
tp1817
a(I1802
F1.0
tp1818
a(I1803
F1.0
tp1819
a(I1804
F1.0
tp1820
a(I1807
F1.0
tp1821
a(I1810
F1.0
tp1822
a(I1811
F1.0
tp1823
a(I1812
F1.0
tp1824
a(I1813
F1.0
tp1825
a(I1814
F1.0
tp1826
a(I1815
F1.0
tp1827
a(I1816
F1.0
tp1828
a(I1817
F1.0
tp1829
a(I1818
F1.0
tp1830
a(I1819
F1.0
tp1831
a(I1820
F1.0
tp1832
a(I1821
F1.0
tp1833
a(I1822
F1.0
tp1834
a(I1823
F1.0
tp1835
a(I1825
F1.0
tp1836
a(I1826
F1.0
tp1837
a(I1827
F1.0
tp1838
a(I1828
F1.0
tp1839
a(I1829
F1.0
tp1840
a(I1830
F1.0
tp1841
a(I1831
F1.0
tp1842
a(I1832
F1.0
tp1843
a(I1833
F1.0
tp1844
a(I1834
F1.0
tp1845
a(I1835
F1.0
tp1846
a(I1836
F1.0
tp1847
a(I1838
F1.0
tp1848
a(I1840
F1.0
tp1849
a(I1842
F1.0
tp1850
a(I1843
F1.0
tp1851
a(I1844
F1.0
tp1852
a(I1845
F1.0
tp1853
a(I1846
F1.0
tp1854
a(I1847
F1.0
tp1855
a(I1848
F1.0
tp1856
a(I1849
F1.0
tp1857
a(I1850
F1.0
tp1858
a(I1851
F1.0
tp1859
a(I1852
F1.0
tp1860
a(I1853
F1.0
tp1861
a(I1854
F1.0
tp1862
a(I1855
F1.0
tp1863
a(I1856
F1.0
tp1864
a(I1857
F1.0
tp1865
a(I1858
F1.0
tp1866
a(I1859
F1.0
tp1867
a(I1860
F1.0
tp1868
a(I1861
F1.0
tp1869
a(I1862
F1.0
tp1870
a(I1864
F1.0
tp1871
a(I1866
F1.0
tp1872
a(I1867
F1.0
tp1873
a(I1868
F1.0
tp1874
a(I1869
F1.0
tp1875
a(I1871
F1.0
tp1876
a(I1874
F1.0
tp1877
a(I1875
F1.0
tp1878
a(I1876
F1.0
tp1879
a(I1878
F1.0
tp1880
a(I1879
F1.0
tp1881
a(I1880
F1.0
tp1882
a(I1881
F1.0
tp1883
a(I1882
F1.0
tp1884
a(I1883
F1.0
tp1885
a(I1884
F1.0
tp1886
a(I1885
F1.0
tp1887
a(I1886
F1.0
tp1888
a(I1887
F1.0
tp1889
a(I1888
F1.0
tp1890
a(I1889
F1.0
tp1891
a(I1890
F1.0
tp1892
a(I1891
F1.0
tp1893
a(I1892
F1.0
tp1894
a(I1893
F1.0
tp1895
a(I1894
F1.0
tp1896
a(I1895
F1.0
tp1897
a(I1896
F1.0
tp1898
a(I1897
F1.0
tp1899
a(I1899
F1.0
tp1900
a(I1900
F1.0
tp1901
a(I1901
F1.0
tp1902
a(I1902
F1.0
tp1903
a(I1903
F1.0
tp1904
a(I1904
F1.0
tp1905
a(I1905
F1.0
tp1906
a(I1906
F1.0
tp1907
a(I1907
F1.0
tp1908
a(I1908
F1.0
tp1909
a(I1909
F1.0
tp1910
a(I1910
F1.0
tp1911
a(I1911
F1.0
tp1912
a(I1912
F1.0
tp1913
a(I1913
F1.0
tp1914
a(I1914
F1.0
tp1915
a(I1915
F1.0
tp1916
a(I1916
F1.0
tp1917
a(I1917
F1.0
tp1918
a(I1918
F1.0
tp1919
a(I1919
F1.0
tp1920
a(I1920
F1.0
tp1921
a(I1921
F1.0
tp1922
a(I1922
F1.0
tp1923
a(I1923
F1.0
tp1924
a(I1924
F1.0
tp1925
a(I1925
F1.0
tp1926
a(I1926
F1.0
tp1927
a(I1927
F1.0
tp1928
a(I1928
F1.0
tp1929
a(I1929
F1.0
tp1930
a(I1930
F1.0
tp1931
a(I1931
F1.0
tp1932
a(I1932
F1.0
tp1933
a(I1933
F1.0
tp1934
a(I1934
F1.0
tp1935
a(I1935
F1.0
tp1936
a(I1936
F1.0
tp1937
a(I1937
F1.0
tp1938
a(I1938
F1.0
tp1939
a(I1939
F1.0
tp1940
a(I1940
F1.0
tp1941
a(I1941
F1.0
tp1942
a(I1942
F1.0
tp1943
a(I1943
F1.0
tp1944
a(I1944
F1.0
tp1945
a(I1945
F1.0
tp1946
a(I1946
F1.0
tp1947
a(I1947
F1.0
tp1948
a(I1948
F1.0
tp1949
a(I1949
F1.0
tp1950
a(I1950
F1.0
tp1951
a(I1951
F1.0
tp1952
a(I1952
F1.0
tp1953
a(I1953
F1.0
tp1954
a(I1954
F1.0
tp1955
a(I1955
F1.0
tp1956
a(I1956
F1.0
tp1957
a(I1957
F1.0
tp1958
a(I1958
F1.0
tp1959
a(I1959
F1.0
tp1960
a(I1960
F1.0
tp1961
a(I1961
F1.0
tp1962
a(I1962
F1.0
tp1963
a(I1963
F1.0
tp1964
a(I1964
F1.0
tp1965
a(I1965
F1.0
tp1966
a(I1966
F1.0
tp1967
a(I1967
F1.0
tp1968
a(I1968
F1.0
tp1969
a(I1969
F1.0
tp1970
a(I1970
F1.0
tp1971
a(I1971
F1.0
tp1972
a(I1972
F1.0
tp1973
a(I1973
F1.0
tp1974
a(I1974
F1.0
tp1975
a(I1975
F1.0
tp1976
a(I1976
F1.0
tp1977
a(I1977
F1.0
tp1978
a(I1978
F1.0
tp1979
a(I1979
F1.0
tp1980
a(I1980
F1.0
tp1981
a(I1981
F1.0
tp1982
a(I1982
F1.0
tp1983
a(I1983
F1.0
tp1984
a(I1984
F1.0
tp1985
a(I1985
F1.0
tp1986
a(I1986
F1.0
tp1987
a(I1987
F1.0
tp1988
a(I1988
F1.0
tp1989
a(I1989
F1.0
tp1990
a(I1990
F1.0
tp1991
a(I1991
F1.0
tp1992
a(I1992
F1.0
tp1993
a(I1993
F1.0
tp1994
a(I1994
F1.0
tp1995
a(I1995
F1.0
tp1996
a(I1996
F1.0
tp1997
a(I1997
F1.0
tp1998
a(I1998
F1.0
tp1999
a(I1999
F1.0
tp2000
a(I2000
F1.0
tp2001
a(I2001
F1.0
tp2002
a(I2002
F1.0
tp2003
a(I2003
F1.0
tp2004
a(I2004
F1.0
tp2005
a(I2005
F1.0
tp2006
a(I2006
F1.0
tp2007
a(I2007
F1.0
tp2008
a(I2008
F1.0
tp2009
a(I2009
F1.0
tp2010
a(I2010
F1.0
tp2011
a(I2011
F1.0
tp2012
a(I2012
F1.0
tp2013
a(I2013
F1.0
tp2014
a(I2014
F1.0
tp2015
a(I2015
F1.0
tp2016
a(I2016
F1.0
tp2017
a(I2017
F1.0
tp2018
a(I2018
F1.0
tp2019
a(I2019
F1.0
tp2020
a(I2020
F1.0
tp2021
a(I2021
F1.0
tp2022
a(I2022
F1.0
tp2023
a(I2023
F1.0
tp2024
a(I2024
F1.0
tp2025
a(I2025
F1.0
tp2026
a(I2026
F1.0
tp2027
a(I2027
F1.0
tp2028
a(I2028
F1.0
tp2029
a(I2029
F1.0
tp2030
a(I2030
F1.0
tp2031
a(I2031
F1.0
tp2032
a(I2032
F1.0
tp2033
a(I2033
F1.0
tp2034
a(I2034
F1.0
tp2035
a(I2035
F1.0
tp2036
a(I2037
F1.0
tp2037
a(I2038
F1.0
tp2038
a(I2039
F1.0
tp2039
a(I2040
F1.0
tp2040
a(I2041
F1.0
tp2041
a(I2042
F1.0
tp2042
a(I2043
F1.0
tp2043
a(I2044
F1.0
tp2044
a(I2045
F1.0
tp2045
a(I2046
F1.0
tp2046
a(I2047
F1.0
tp2047
a(I2048
F1.0
tp2048
a(I2049
F1.0
tp2049
a(I2050
F1.0
tp2050
a(I2051
F1.0
tp2051
a(I2052
F1.0
tp2052
a(I2053
F1.0
tp2053
a(I2054
F1.0
tp2054
a(I2055
F1.0
tp2055
a(I2056
F1.0
tp2056
a(I2057
F1.0
tp2057
a(I2058
F1.0
tp2058
a(I2059
F1.0
tp2059
a(I2060
F1.0
tp2060
a(I2061
F1.0
tp2061
a(I2062
F1.0
tp2062
a(I2063
F1.0
tp2063
a(I2064
F1.0
tp2064
a(I2065
F1.0
tp2065
a(I2066
F1.0
tp2066
a(I2067
F1.0
tp2067
a(I2068
F1.0
tp2068
a(I2069
F1.0
tp2069
a(I2070
F1.0
tp2070
a(I2071
F1.0
tp2071
a(I2072
F1.0
tp2072
a(I2073
F1.0
tp2073
a(I2074
F1.0
tp2074
a(I2075
F1.0
tp2075
a(I2076
F1.0
tp2076
a(I2077
F1.0
tp2077
a(I2078
F1.0
tp2078
a(I2079
F1.0
tp2079
a(I2080
F1.0
tp2080
a(I2081
F1.0
tp2081
a(I2082
F1.0
tp2082
a(I2083
F1.0
tp2083
a(I2084
F1.0
tp2084
a(I2085
F1.0
tp2085
a(I2086
F1.0
tp2086
a(I2087
F1.0
tp2087
a(I2088
F1.0
tp2088
a(I2089
F1.0
tp2089
a(I2090
F1.0
tp2090
a(I2091
F1.0
tp2091
a(I2092
F1.0
tp2092
a(I2093
F1.0
tp2093
a(I2094
F1.0
tp2094
a(I2095
F1.0
tp2095
a(I2096
F1.0
tp2096
a(I2097
F1.0
tp2097
a(I2098
F1.0
tp2098
a(I2099
F1.0
tp2099
a(I2100
F1.0
tp2100
a(I2101
F1.0
tp2101
a(I2102
F1.0
tp2102
a(I2103
F1.0
tp2103
a(I2104
F1.0
tp2104
a(I2105
F1.0
tp2105
a(I2106
F1.0
tp2106
a(I2107
F1.0
tp2107
a(I2108
F1.0
tp2108
a(I2109
F1.0
tp2109
a(I2110
F1.0
tp2110
a(I2111
F1.0
tp2111
a(I2112
F1.0
tp2112
a(I2113
F1.0
tp2113
a(I2114
F1.0
tp2114
a(I2115
F1.0
tp2115
a(I2116
F1.0
tp2116
a(I2117
F1.0
tp2117
a(I2118
F1.0
tp2118
a(I2119
F1.0
tp2119
a(I2120
F1.0
tp2120
a(I2121
F1.0
tp2121
a(I2122
F1.0
tp2122
a(I2123
F1.0
tp2123
a(I2124
F1.0
tp2124
a(I2125
F1.0
tp2125
a(I2126
F1.0
tp2126
a(I2127
F1.0
tp2127
a(I2128
F1.0
tp2128
a(I2129
F1.0
tp2129
a(I2130
F1.0
tp2130
a(I2131
F1.0
tp2131
a(I2132
F1.0
tp2132
a(I2133
F1.0
tp2133
a(I2134
F1.0
tp2134
a(I2135
F1.0
tp2135
a(I2136
F1.0
tp2136
a(I2137
F1.0
tp2137
a(I2138
F1.0
tp2138
a(I2139
F1.0
tp2139
a(I2140
F1.0
tp2140
a(I2141
F1.0
tp2141
a(I2142
F1.0
tp2142
a(I2143
F1.0
tp2143
a(I2144
F1.0
tp2144
a(I2145
F1.0
tp2145
a(I2146
F1.0
tp2146
a(I2147
F1.0
tp2147
a(I2148
F1.0
tp2148
a(I2149
F1.0
tp2149
a(I2150
F1.0
tp2150
a(I2151
F1.0
tp2151
a(I2152
F1.0
tp2152
a(I2153
F1.0
tp2153
a(I2154
F1.0
tp2154
a(I2155
F1.0
tp2155
a(I2156
F1.0
tp2156
a(I2157
F1.0
tp2157
a(I2158
F1.0
tp2158
a(I2159
F1.0
tp2159
a(I2160
F1.0
tp2160
a(I2161
F1.0
tp2161
a(I2162
F1.0
tp2162
a(I2163
F1.0
tp2163
a(I2164
F1.0
tp2164
a(I2165
F1.0
tp2165
a(I2166
F1.0
tp2166
a(I2167
F1.0
tp2167
a(I2168
F1.0
tp2168
a(I2169
F1.0
tp2169
a(I2170
F1.0
tp2170
a(I2171
F1.0
tp2171
a(I2172
F1.0
tp2172
a(I2173
F1.0
tp2173
a(I2174
F1.0
tp2174
a(I2175
F1.0
tp2175
a(I2176
F1.0
tp2176
a(I2177
F1.0
tp2177
a(I2178
F1.0
tp2178
a(I2179
F1.0
tp2179
a(I2180
F1.0
tp2180
a(I2181
F1.0
tp2181
a(I2182
F1.0
tp2182
a(I2183
F1.0
tp2183
a(I2184
F1.0
tp2184
a(I2185
F1.0
tp2185
a(I2186
F1.0
tp2186
a(I2187
F1.0
tp2187
a(I2188
F1.0
tp2188
a(I2189
F1.0
tp2189
a(I2190
F1.0
tp2190
a(I2191
F1.0
tp2191
a(I2192
F1.0
tp2192
a(I2193
F1.0
tp2193
a(I2194
F1.0
tp2194
a(I2195
F1.0
tp2195
a(I2196
F1.0
tp2196
a(I2197
F1.0
tp2197
a(I2198
F1.0
tp2198
a(I2199
F1.0
tp2199
a(I2200
F1.0
tp2200
a(I2201
F1.0
tp2201
a(I2202
F1.0
tp2202
a(I2203
F1.0
tp2203
a(I2204
F1.0
tp2204
a(I2205
F1.0
tp2205
a(I2206
F1.0
tp2206
a(I2207
F1.0
tp2207
a(I2208
F1.0
tp2208
a(I2209
F1.0
tp2209
a(I2210
F1.0
tp2210
a(I2211
F1.0
tp2211
a(I2212
F1.0
tp2212
a(I2213
F1.0
tp2213
a(I2214
F1.0
tp2214
a(I2215
F1.0
tp2215
a(I2216
F1.0
tp2216
a(I2217
F1.0
tp2217
a(I2218
F1.0
tp2218
a(I2219
F1.0
tp2219
a(I98
F1.0098531922715357
tp2220
a.