(lp0
(I237
F0.011225133693375857
tp1
a(I265
F0.014561104996863515
tp2
a(I845
F0.017619922260010374
tp3
a(I393
F0.020206605706978104
tp4
a(I28
F0.021673690334136186
tp5
a(I1016
F0.022088509317400563
tp6
a(I39
F0.0223044536638086
tp7
a(I19
F0.022690603058122046
tp8
a(I279
F0.022998337781557156
tp9
a(I888
F0.023322082677733082
tp10
a(I981
F0.02341026590951139
tp11
a(I971
F0.02412469006628576
tp12
a(I381
F0.024131141947972744
tp13
a(I51
F0.02430103164589093
tp14
a(I442
F0.024403143012985785
tp15
a(I1140
F0.024488250044319235
tp16
a(I33
F0.02456910739890928
tp17
a(I1139
F0.024588920800638778
tp18
a(I826
F0.02484181515019995
tp19
a(I276
F0.024925143415702514
tp20
a(I226
F0.026269099856290952
tp21
a(I890
F0.02652405337030021
tp22
a(I89
F0.02744694955613935
tp23
a(I147
F0.027905045510831922
tp24
a(I234
F0.028063362308745413
tp25
a(I11
F0.02813273951947562
tp26
a(I12
F0.02821167378032496
tp27
a(I372
F0.02897578646012621
tp28
a(I913
F0.029391155656273038
tp29
a(I107
F0.029519738686420435
tp30
a(I887
F0.03015368187693972
tp31
a(I157
F0.03075682373855542
tp32
a(I326
F0.031018673697989888
tp33
a(I217
F0.031413291821638156
tp34
a(I702
F0.03171156934050742
tp35
a(I6
F0.03173149545504481
tp36
a(I58
F0.03186047957763385
tp37
a(I595
F0.03194349684897166
tp38
a(I224
F0.03217259503632732
tp39
a(I31
F0.03241052186665706
tp40
a(I446
F0.032420965315461646
tp41
a(I379
F0.03244253440895684
tp42
a(I716
F0.032523503653177924
tp43
a(I117
F0.032953279581878395
tp44
a(I466
F0.033291577880163216
tp45
a(I963
F0.03382225904882578
tp46
a(I201
F0.03420554901017795
tp47
a(I976
F0.03437930665231676
tp48
a(I246
F0.034436580315808304
tp49
a(I292
F0.03468563771094237
tp50
a(I439
F0.034907107611469
tp51
a(I640
F0.03504173543424126
tp52
a(I692
F0.0351339826417056
tp53
a(I419
F0.03524661949403192
tp54
a(I453
F0.03576518944177236
tp55
a(I398
F0.03586754482720398
tp56
a(I220
F0.03616195554507533
tp57
a(I45
F0.036277873676291136
tp58
a(I403
F0.03633726194755901
tp59
a(I597
F0.036656071287971485
tp60
a(I56
F0.03687948530382686
tp61
a(I558
F0.03694930954370314
tp62
a(I522
F0.03700676070666027
tp63
a(I1030
F0.03701875445876596
tp64
a(I833
F0.03703891099392804
tp65
a(I416
F0.03720150988611208
tp66
a(I259
F0.03724816795277628
tp67
a(I904
F0.037335075977409884
tp68
a(I388
F0.03742745202440328
tp69
a(I710
F0.03792912081822153
tp70
a(I285
F0.0383941015259351
tp71
a(I70
F0.03848932900348534
tp72
a(I156
F0.038599728309603454
tp73
a(I840
F0.038631972279957724
tp74
a(I606
F0.03871636008701287
tp75
a(I529
F0.03880798261534076
tp76
a(I34
F0.03881180522745
tp77
a(I228
F0.03894332423178108
tp78
a(I436
F0.03907433689995374
tp79
a(I5
F0.0392901529188477
tp80
a(I71
F0.03956480282857936
tp81
a(I828
F0.04046853785923659
tp82
a(I325
F0.040598804163701166
tp83
a(I666
F0.04107331067122613
tp84
a(I421
F0.04114421071730513
tp85
a(I1271
F0.041281776189084296
tp86
a(I940
F0.04170793692084661
tp87
a(I620
F0.04200995644597922
tp88
a(I1112
F0.04207168880121343
tp89
a(I151
F0.04220368341717115
tp90
a(I238
F0.042324629463561324
tp91
a(I371
F0.042463873235324905
tp92
a(I356
F0.042533208292402765
tp93
a(I374
F0.04259668428597246
tp94
a(I535
F0.04264176963455368
tp95
a(I418
F0.04268909804343548
tp96
a(I456
F0.04314601248155326
tp97
a(I154
F0.043161780432306236
tp98
a(I150
F0.04344647551587515
tp99
a(I355
F0.04351466240093756
tp100
a(I213
F0.043610078364830746
tp101
a(I461
F0.043783845769543125
tp102
a(I1008
F0.044146750687087254
tp103
a(I1040
F0.044276062536364715
tp104
a(I1235
F0.04442996747626783
tp105
a(I1045
F0.04448516541659896
tp106
a(I87
F0.04477906987839686
tp107
a(I225
F0.044858206097802805
tp108
a(I513
F0.044889142610518316
tp109
a(I680
F0.04548885490783498
tp110
a(I329
F0.04557710852876287
tp111
a(I783
F0.04570647406653695
tp112
a(I377
F0.045752190148515275
tp113
a(I105
F0.04597776350505229
tp114
a(I173
F0.046136636369328514
tp115
a(I323
F0.04626149650029175
tp116
a(I65
F0.0462704046505525
tp117
a(I277
F0.0463245747239959
tp118
a(I825
F0.046440748837718177
tp119
a(I774
F0.046462416528873736
tp120
a(I1089
F0.04649054466483002
tp121
a(I40
F0.04680106992822616
tp122
a(I158
F0.04687424465335991
tp123
a(I949
F0.047028227231807725
tp124
a(I1006
F0.047329145176054445
tp125
a(I1085
F0.047446122309612246
tp126
a(I153
F0.047477002514446816
tp127
a(I73
F0.047638215020332324
tp128
a(I24
F0.048582746320645555
tp129
a(I218
F0.04858927715183234
tp130
a(I609
F0.0486480466163715
tp131
a(I462
F0.04877937166084625
tp132
a(I397
F0.048932257820328215
tp133
a(I227
F0.04897396549645039
tp134
a(I1328
F0.04930779045371211
tp135
a(I613
F0.04994209626924948
tp136
a(I189
F0.050277994996563984
tp137
a(I587
F0.05031559026338066
tp138
a(I149
F0.05098434585175722
tp139
a(I652
F0.05123177924336494
tp140
a(I664
F0.05186196973429666
tp141
a(I46
F0.052217096164103305
tp142
a(I37
F0.052231928662949685
tp143
a(I62
F0.0523047376923409
tp144
a(I328
F0.05236944902772812
tp145
a(I170
F0.05238153296114432
tp146
a(I331
F0.05254788046305156
tp147
a(I80
F0.05263864889577289
tp148
a(I882
F0.05276814634273505
tp149
a(I161
F0.05286076056245375
tp150
a(I1186
F0.05299172816073332
tp151
a(I49
F0.05307823874987197
tp152
a(I390
F0.05320745181772732
tp153
a(I263
F0.053315134303378454
tp154
a(I100
F0.05343376769549522
tp155
a(I970
F0.05345291257348557
tp156
a(I16
F0.05402003607653585
tp157
a(I36
F0.05403009808037458
tp158
a(I1071
F0.054186693446099034
tp159
a(I526
F0.054310940616101526
tp160
a(I497
F0.05433748707706537
tp161
a(I1105
F0.054658080039706576
tp162
a(I1011
F0.05496748575138338
tp163
a(I1072
F0.05533382445793154
tp164
a(I926
F0.05563703337413457
tp165
a(I607
F0.05582205629076232
tp166
a(I1618
F0.05583849692147625
tp167
a(I2
F0.05587148243578787
tp168
a(I14
F0.05596300522967598
tp169
a(I910
F0.055973374762191656
tp170
a(I1179
F0.05612508670357109
tp171
a(I1083
F0.05612852928826694
tp172
a(I1001
F0.05620597934663037
tp173
a(I97
F0.05622248137230376
tp174
a(I74
F0.056325442811797286
tp175
a(I532
F0.05672591585248364
tp176
a(I651
F0.056856523762890444
tp177
a(I35
F0.05800992337380164
tp178
a(I874
F0.05823165170724804
tp179
a(I29
F0.058312667958750126
tp180
a(I757
F0.0583203829145304
tp181
a(I863
F0.058528623367525186
tp182
a(I780
F0.058997343329632135
tp183
a(I242
F0.059278684220263424
tp184
a(I53
F0.05932015967182568
tp185
a(I539
F0.059417724112059415
tp186
a(I801
F0.05963868093155371
tp187
a(I810
F0.05985982521743221
tp188
a(I460
F0.060206276954988994
tp189
a(I69
F0.06043877473847855
tp190
a(I470
F0.06044374470184388
tp191
a(I507
F0.06050273180517692
tp192
a(I527
F0.06053354602563228
tp193
a(I1741
F0.060838047661712635
tp194
a(I1113
F0.06084378751183957
tp195
a(I1144
F0.0608990595954417
tp196
a(I463
F0.06090387494064979
tp197
a(I517
F0.060904433891248236
tp198
a(I985
F0.061096346961573435
tp199
a(I395
F0.06110665916872555
tp200
a(I1103
F0.06113231872803116
tp201
a(I528
F0.06120996098500651
tp202
a(I152
F0.06130848568062585
tp203
a(I286
F0.06164419884753779
tp204
a(I21
F0.06165934863984917
tp205
a(I1026
F0.06170141589485062
tp206
a(I42
F0.06173127693087402
tp207
a(I594
F0.062000291480556885
tp208
a(I1012
F0.062135625128000437
tp209
a(I94
F0.06221858253612299
tp210
a(I519
F0.06235184755285694
tp211
a(I677
F0.06239493326296778
tp212
a(I293
F0.06248402015413472
tp213
a(I658
F0.06250129600777041
tp214
a(I364
F0.06255299224739606
tp215
a(I1130
F0.06259902288685276
tp216
a(I214
F0.0628935866204011
tp217
a(I467
F0.06294890923041936
tp218
a(I1064
F0.06340214273886209
tp219
a(I1086
F0.06390374806934006
tp220
a(I674
F0.06394194779478743
tp221
a(I1178
F0.06425879662301649
tp222
a(I221
F0.06434381289701943
tp223
a(I509
F0.06450469278655568
tp224
a(I775
F0.0650186001498963
tp225
a(I282
F0.06502399891307116
tp226
a(I98
F0.0651166985998719
tp227
a(I160
F0.06518027852879522
tp228
a(I686
F0.06523901689122087
tp229
a(I1092
F0.0653753864734353
tp230
a(I50
F0.06539601775426891
tp231
a(I676
F0.06542373585588289
tp232
a(I1062
F0.06568345985971631
tp233
a(I927
F0.06595709283550465
tp234
a(I108
F0.06596160608794821
tp235
a(I1338
F0.06602550431197611
tp236
a(I1892
F0.06606358202122035
tp237
a(I1024
F0.06617050177689199
tp238
a(I330
F0.0662267278052316
tp239
a(I66
F0.06651142405513205
tp240
a(I86
F0.06677483164751985
tp241
a(I990
F0.06684697953361268
tp242
a(I879
F0.06689445891707452
tp243
a(I264
F0.06690652464799118
tp244
a(I697
F0.06734255270683731
tp245
a(I389
F0.06788830623915926
tp246
a(I755
F0.06797224557602377
tp247
a(I605
F0.06802687120409406
tp248
a(I523
F0.06847779802366498
tp249
a(I1223
F0.06853572199795901
tp250
a(I162
F0.06880385302942765
tp251
a(I169
F0.06910392962218748
tp252
a(I1000
F0.0692703895084327
tp253
a(I219
F0.06977530137872769
tp254
a(I341
F0.06984647550900445
tp255
a(I1287
F0.06992706345545843
tp256
a(I608
F0.07004848093116411
tp257
a(I261
F0.07016392861714453
tp258
a(I1059
F0.07036075698486344
tp259
a(I541
F0.07036668420320832
tp260
a(I291
F0.07056189435935065
tp261
a(I164
F0.07075563770485697
tp262
a(I869
F0.07123130475246665
tp263
a(I233
F0.07126959537729492
tp264
a(I1334
F0.0720197389363229
tp265
a(I1342
F0.07261969205585948
tp266
a(I1220
F0.0727187260719084
tp267
a(I68
F0.07292623372062872
tp268
a(I1150
F0.0729857609734188
tp269
a(I280
F0.07320276598925574
tp270
a(I999
F0.07336291665852362
tp271
a(I932
F0.07366686469963499
tp272
a(I1118
F0.07392692383131727
tp273
a(I1633
F0.07401281859139473
tp274
a(I239
F0.07404999480626052
tp275
a(I614
F0.07410105314529256
tp276
a(I112
F0.07448069653446436
tp277
a(I617
F0.07475375363501675
tp278
a(I1023
F0.07480449720651426
tp279
a(I931
F0.0749084887125973
tp280
a(I908
F0.07508839815296281
tp281
a(I1279
F0.07509698929542916
tp282
a(I806
F0.07510328022805651
tp283
a(I360
F0.07517172038372014
tp284
a(I515
F0.0753338863767282
tp285
a(I979
F0.0753373836539288
tp286
a(I713
F0.07544605056127532
tp287
a(I55
F0.0755743418007684
tp288
a(I929
F0.07591812724041036
tp289
a(I536
F0.07596742662351244
tp290
a(I616
F0.07599854865834757
tp291
a(I554
F0.07602994883765259
tp292
a(I1344
F0.07621572829656661
tp293
a(I1109
F0.07643412253126686
tp294
a(I278
F0.07686511035965285
tp295
a(I1145
F0.07705031491233073
tp296
a(I641
F0.07761770537079207
tp297
a(I1466
F0.0780189332506857
tp298
a(I1007
F0.07808416818483169
tp299
a(I720
F0.07809226082031923
tp300
a(I915
F0.07836017093598709
tp301
a(I721
F0.0785289849906543
tp302
a(I986
F0.07854082156759441
tp303
a(I334
F0.07859831241306461
tp304
a(I426
F0.07877113258837963
tp305
a(I60
F0.0791227080493653
tp306
a(I375
F0.07921578835710838
tp307
a(I647
F0.07950353217420483
tp308
a(I1188
F0.07959291627962449
tp309
a(I400
F0.07977763313155616
tp310
a(I1354
F0.07992499026213726
tp311
a(I222
F0.08022486271983904
tp312
a(I1414
F0.08025325637649887
tp313
a(I781
F0.08047093154129055
tp314
a(I568
F0.08064924312198683
tp315
a(I57
F0.08066924145398735
tp316
a(I685
F0.08071688113267458
tp317
a(I1281
F0.08104737437103725
tp318
a(I834
F0.08144036661957736
tp319
a(I642
F0.08159190163229169
tp320
a(I298
F0.0817366527875997
tp321
a(I271
F0.08187108046226697
tp322
a(I404
F0.08192627902117745
tp323
a(I699
F0.08200540932286751
tp324
a(I544
F0.08203487955693797
tp325
a(I956
F0.08212465075975356
tp326
a(I688
F0.08219817242276066
tp327
a(I441
F0.08235234502404126
tp328
a(I1224
F0.08251559176656578
tp329
a(I1226
F0.08265910869983786
tp330
a(I44
F0.08268004478744499
tp331
a(I1014
F0.08287245005950433
tp332
a(I1426
F0.08312578931114892
tp333
a(I906
F0.0832056237732686
tp334
a(I1123
F0.08325182541582511
tp335
a(I934
F0.08334318233412681
tp336
a(I399
F0.08352760229493196
tp337
a(I1449
F0.08374302225165633
tp338
a(I799
F0.08376448184741374
tp339
a(I203
F0.08391370799853352
tp340
a(I302
F0.08459338490731273
tp341
a(I26
F0.08461753162831336
tp342
a(I703
F0.08479836129544047
tp343
a(I336
F0.08504485381915572
tp344
a(I241
F0.08506502586484688
tp345
a(I961
F0.08507779311538566
tp346
a(I649
F0.08515943897373277
tp347
a(I482
F0.08520645180502143
tp348
a(I615
F0.08521750169766132
tp349
a(I911
F0.08563568548262235
tp350
a(I804
F0.08603684402100745
tp351
a(I939
F0.0863124257349018
tp352
a(I43
F0.08636211038305767
tp353
a(I829
F0.08637053089562338
tp354
a(I805
F0.08641821753728227
tp355
a(I417
F0.08668050820198583
tp356
a(I672
F0.08684448937595488
tp357
a(I516
F0.08706071510956588
tp358
a(I938
F0.0871990081322831
tp359
a(I663
F0.08733201775435674
tp360
a(I231
F0.08831103890846033
tp361
a(I287
F0.08865119775385079
tp362
a(I102
F0.08879180290613317
tp363
a(I362
F0.08923093930310004
tp364
a(I669
F0.0896238385597596
tp365
a(I159
F0.08978882437685114
tp366
a(I444
F0.08993649498490519
tp367
a(I969
F0.09000944157819635
tp368
a(I1009
F0.0901284621653486
tp369
a(I917
F0.09078720453201523
tp370
a(I352
F0.09099162679816004
tp371
a(I22
F0.09130972022297479
tp372
a(I935
F0.0913412214436312
tp373
a(I1399
F0.09138225585620333
tp374
a(I786
F0.09140735104189864
tp375
a(I1438
F0.0914854391529399
tp376
a(I596
F0.09151245122814074
tp377
a(I725
F0.09157982594523698
tp378
a(I561
F0.0917408434233208
tp379
a(I13
F0.09211630686649967
tp380
a(I693
F0.09262044735310927
tp381
a(I81
F0.09272112669387947
tp382
a(I1027
F0.09386254725304433
tp383
a(I510
F0.09417513406078203
tp384
a(I84
F0.0945595161723115
tp385
a(I77
F0.09482040180128844
tp386
a(I537
F0.09505991761158447
tp387
a(I30
F0.09546900005033776
tp388
a(I357
F0.09577714892276878
tp389
a(I449
F0.09577936508271155
tp390
a(I982
F0.09592182068562774
tp391
a(I296
F0.09611031366687639
tp392
a(I502
F0.09617174273357619
tp393
a(I126
F0.09663797844780353
tp394
a(I163
F0.09710623353919906
tp395
a(I504
F0.0972631032804765
tp396
a(I838
F0.09787590854089158
tp397
a(I1038
F0.09821626365516668
tp398
a(I1087
F0.09847864007361905
tp399
a(I23
F0.09857490299352092
tp400
a(I215
F0.09877163935464352
tp401
a(I723
F0.09877522652090534
tp402
a(I534
F0.0987969227476373
tp403
a(I1154
F0.09916182990409253
tp404
a(I254
F0.09958594107579219
tp405
a(I895
F0.09967389978361714
tp406
a(I1350
F0.1000616700807884
tp407
a(I445
F0.10010970546886407
tp408
a(I1293
F0.10029041076571169
tp409
a(I376
F0.10037897743841634
tp410
a(I1347
F0.1006647418878996
tp411
a(I691
F0.10075326839472597
tp412
a(I232
F0.10084950970085044
tp413
a(I1153
F0.1008816953225778
tp414
a(I689
F0.10101796893833846
tp415
a(I48
F0.10128220568509198
tp416
a(I99
F0.10130447960149486
tp417
a(I695
F0.10137472130173698
tp418
a(I711
F0.10167645641649158
tp419
a(I921
F0.10213232576699853
tp420
a(I198
F0.1022615600831328
tp421
a(I1079
F0.10231937030380261
tp422
a(I1061
F0.1024712732845722
tp423
a(I104
F0.10250621153922701
tp424
a(I1277
F0.1030978879229012
tp425
a(I288
F0.10317590544690886
tp426
a(I359
F0.10352570518224202
tp427
a(I767
F0.10371709246390724
tp428
a(I432
F0.10375950748383071
tp429
a(I847
F0.10390345782884615
tp430
a(I391
F0.10398630077008295
tp431
a(I1133
F0.10418974806502594
tp432
a(I508
F0.10432136901719545
tp433
a(I604
F0.10440663129273177
tp434
a(I1075
F0.10447774701772969
tp435
a(I704
F0.10480274940301666
tp436
a(I809
F0.10481248881859942
tp437
a(I406
F0.10507456731839399
tp438
a(I1174
F0.10538264688291757
tp439
a(I896
F0.10541012749280067
tp440
a(I27
F0.10547509086553694
tp441
a(I106
F0.1054837295992108
tp442
a(I0
F0.105548233261902
tp443
a(I1524
F0.1059812562913147
tp444
a(I844
F0.10639389192371276
tp445
a(I950
F0.10678651761475519
tp446
a(I216
F0.1071500668600103
tp447
a(I72
F0.10722861843478648
tp448
a(I832
F0.10725522648093118
tp449
a(I202
F0.10736330491016088
tp450
a(I698
F0.10774250822892872
tp451
a(I1370
F0.10789059157882414
tp452
a(I1065
F0.10794037428619949
tp453
a(I925
F0.1080234481552484
tp454
a(I530
F0.10803537405795068
tp455
a(I1084
F0.10808189754681555
tp456
a(I121
F0.10816571535130944
tp457
a(I598
F0.1083656260934182
tp458
a(I1383
F0.10840358105596584
tp459
a(I493
F0.10859693107733892
tp460
a(I841
F0.1087303297208915
tp461
a(I41
F0.10877290218223969
tp462
a(I1141
F0.1089933603147889
tp463
a(I1114
F0.10904114015254575
tp464
a(I967
F0.10930284248643714
tp465
a(I1074
F0.10941696000383094
tp466
a(I197
F0.10946754368801719
tp467
a(I464
F0.10988146562688611
tp468
a(I808
F0.11004963145839709
tp469
a(I589
F0.11015404091711456
tp470
a(I662
F0.11019860131796447
tp471
a(I1094
F0.11031713816934262
tp472
a(I1781
F0.11070319517964819
tp473
a(I20
F0.11121388901148951
tp474
a(I865
F0.11141166208124359
tp475
a(I842
F0.11141691054647415
tp476
a(I972
F0.11151655517989238
tp477
a(I514
F0.11185233315990133
tp478
a(I248
F0.11188413916246061
tp479
a(I113
F0.11202234634404179
tp480
a(I1018
F0.11216216534783244
tp481
a(I1323
F0.11237349933925934
tp482
a(I353
F0.11238372664725745
tp483
a(I715
F0.11266800390476009
tp484
a(I1129
F0.11315873738791567
tp485
a(I59
F0.1136731305884885
tp486
a(I1104
F0.11373136951756198
tp487
a(I909
F0.11382753351475075
tp488
a(I712
F0.11398583193924368
tp489
a(I122
F0.11402446848054903
tp490
a(I177
F0.11405631819479974
tp491
a(I165
F0.11416172096486775
tp492
a(I1309
F0.11426295638071737
tp493
a(I85
F0.11426840188797462
tp494
a(I1106
F0.1147781783446948
tp495
a(I1786
F0.11486741974324072
tp496
a(I1055
F0.11508141652177442
tp497
a(I1343
F0.11568346189822509
tp498
a(I405
F0.11577991908778885
tp499
a(I648
F0.11590166136256425
tp500
a(I1669
F0.1159292972970655
tp501
a(I984
F0.11622344018358886
tp502
a(I1143
F0.11678000690142197
tp503
a(I181
F0.116964991069941
tp504
a(I1340
F0.1171546024847886
tp505
a(I1010
F0.11746937147247177
tp506
a(I758
F0.11765030495919634
tp507
a(I506
F0.11768453274693229
tp508
a(I471
F0.11768725913268649
tp509
a(I1004
F0.11774125095222149
tp510
a(I373
F0.1178485963998511
tp511
a(I93
F0.11792955587882288
tp512
a(I420
F0.11794463979155824
tp513
a(I1080
F0.11805448503211713
tp514
a(I930
F0.11838130834631334
tp515
a(I1137
F0.11862061600238127
tp516
a(I601
F0.11927039834728313
tp517
a(I843
F0.11929775064891492
tp518
a(I922
F0.12013809869128961
tp519
a(I1169
F0.12030880645094454
tp520
a(I78
F0.1203184856521521
tp521
a(I1070
F0.12049742601604323
tp522
a(I653
F0.12054303822746164
tp523
a(I678
F0.1207289571166602
tp524
a(I1310
F0.12076471093988453
tp525
a(I1510
F0.12139400251582647
tp526
a(I428
F0.12150239850336855
tp527
a(I262
F0.12224510206532835
tp528
a(I1230
F0.12252145700747266
tp529
a(I96
F0.12304457599659818
tp530
a(I1536
F0.12307025704715309
tp531
a(I867
F0.12313290790806974
tp532
a(I1052
F0.12424131544976738
tp533
a(I933
F0.12438471369131981
tp534
a(I1687
F0.12454773424275635
tp535
a(I186
F0.12454886703031068
tp536
a(I1311
F0.12469226643253853
tp537
a(I54
F0.1247743066030672
tp538
a(I1300
F0.12546591697481135
tp539
a(I705
F0.12591439792003092
tp540
a(I1096
F0.12646578265640132
tp541
a(I1158
F0.12742757697141113
tp542
a(I991
F0.12765543371699883
tp543
a(I457
F0.12799717819732445
tp544
a(I726
F0.12838258433190142
tp545
a(I455
F0.12867734089745778
tp546
a(I547
F0.12877423718385012
tp547
a(I1345
F0.1295360678127769
tp548
a(I1299
F0.12960914816908065
tp549
a(I385
F0.12963800789839328
tp550
a(I294
F0.12969358243875362
tp551
a(I236
F0.13013817438576347
tp552
a(I839
F0.13024311590154505
tp553
a(I290
F0.1302585575969928
tp554
a(I1032
F0.13053725793078913
tp555
a(I342
F0.13077700130792347
tp556
a(I459
F0.1314253306206983
tp557
a(I973
F0.1315739456246497
tp558
a(I992
F0.13168175763754852
tp559
a(I525
F0.13245567322703122
tp560
a(I916
F0.132565607397851
tp561
a(I1151
F0.13257325120201402
tp562
a(I983
F0.13332665525788098
tp563
a(I358
F0.13399213034462162
tp564
a(I1450
F0.13406396133044043
tp565
a(I1121
F0.13417214543144942
tp566
a(I1076
F0.13485345900353915
tp567
a(I635
F0.13488280421089255
tp568
a(I1678
F0.13554238595643078
tp569
a(I602
F0.13571285032076508
tp570
a(I1408
F0.1359032080141711
tp571
a(I1341
F0.13590835211539146
tp572
a(I91
F0.13609089436075034
tp573
a(I131
F0.1364725582421219
tp574
a(I918
F0.1365405799311812
tp575
a(I684
F0.13656901556463297
tp576
a(I498
F0.13663429225905122
tp577
a(I386
F0.1368579311112179
tp578
a(I800
F0.13693296509704583
tp579
a(I846
F0.13710765082757334
tp580
a(I82
F0.1376900541391456
tp581
a(I1093
F0.13771051667619766
tp582
a(I1170
F0.13795805197633973
tp583
a(I835
F0.13806899883377285
tp584
a(I32
F0.13819806117409184
tp585
a(I543
F0.13825529089049482
tp586
a(I8
F0.13828680569781202
tp587
a(I184
F0.1382885299517615
tp588
a(I1462
F0.13836041287073408
tp589
a(I854
F0.13839154458913452
tp590
a(I1042
F0.13886464729897582
tp591
a(I1069
F0.1391498386469876
tp592
a(I319
F0.1396525664864668
tp593
a(I79
F0.13967584694272653
tp594
a(I1125
F0.1399590877020051
tp595
a(I701
F0.1400963716407483
tp596
a(I257
F0.1401102250289519
tp597
a(I683
F0.1404908528688046
tp598
a(I803
F0.14102061649932232
tp599
a(I900
F0.1419298751971803
tp600
a(I560
F0.1419575521868006
tp601
a(I1335
F0.1420058850636001
tp602
a(I1418
F0.14203939607037122
tp603
a(I1063
F0.1420913846328553
tp604
a(I962
F0.14234942126925396
tp605
a(I454
F0.14274943269874546
tp606
a(I95
F0.1429573839765823
tp607
a(I1073
F0.14326530543612687
tp608
a(I123
F0.14331215785695814
tp609
a(I521
F0.14340490997764593
tp610
a(I714
F0.14375928423492354
tp611
a(I1175
F0.14438075641137618
tp612
a(I545
F0.14448489597939757
tp613
a(I110
F0.14449580166068227
tp614
a(I469
F0.14458468451444678
tp615
a(I1417
F0.1448452120518241
tp616
a(I447
F0.14498199269850034
tp617
a(I1331
F0.1450760036219627
tp618
a(I707
F0.1461408006272185
tp619
a(I1352
F0.1463815829276424
tp620
a(I899
F0.1464277037696581
tp621
a(I540
F0.14670261131220433
tp622
a(I1147
F0.14699175240845794
tp623
a(I1303
F0.14713022414476648
tp624
a(I1504
F0.14729338513209206
tp625
a(I1773
F0.14750079828388496
tp626
a(I487
F0.1486823943770375
tp627
a(I235
F0.14925173098381267
tp628
a(I1149
F0.14949642557235845
tp629
a(I167
F0.14986402847215374
tp630
a(I1155
F0.15008299662849436
tp631
a(I1728
F0.15009825383862324
tp632
a(I172
F0.15102325199455874
tp633
a(I141
F0.15198995538700216
tp634
a(I25
F0.15221349617243815
tp635
a(I1157
F0.15234188872940693
tp636
a(I947
F0.1529102945557388
tp637
a(I244
F0.1530024621903206
tp638
a(I807
F0.15347476790431996
tp639
a(I1525
F0.15354627995349143
tp640
a(I1222
F0.15500527826119145
tp641
a(I681
F0.15517829955028986
tp642
a(I968
F0.15584597461891317
tp643
a(I1296
F0.15663705477948
tp644
a(I914
F0.15680808395376655
tp645
a(I993
F0.15715949895110512
tp646
a(I836
F0.15739354084230295
tp647
a(I1800
F0.15784053445913768
tp648
a(I435
F0.15830593657683598
tp649
a(I555
F0.15836663243896945
tp650
a(I88
F0.15861619248887981
tp651
a(I1276
F0.159166393086541
tp652
a(I603
F0.15925678373010085
tp653
a(I796
F0.15967383012412317
tp654
a(I187
F0.160282765757134
tp655
a(I1187
F0.1604464599412482
tp656
a(I230
F0.1604510979866446
tp657
a(I486
F0.16049419090848568
tp658
a(I190
F0.1607409923245924
tp659
a(I1015
F0.16128028060137756
tp660
a(I1375
F0.16206938728099599
tp661
a(I610
F0.16213056619549654
tp662
a(I612
F0.16260368389550622
tp663
a(I145
F0.16334449056426728
tp664
a(I924
F0.16337020751831766
tp665
a(I430
F0.16410578368772172
tp666
a(I1367
F0.16412409624657037
tp667
a(I533
F0.16445755762870137
tp668
a(I111
F0.16492998285968538
tp669
a(I728
F0.16507500674891074
tp670
a(I960
F0.16551708974286533
tp671
a(I1058
F0.16589539687766103
tp672
a(I687
F0.16604832513922452
tp673
a(I1088
F0.16617965708959073
tp674
a(I1739
F0.16625833120532246
tp675
a(I771
F0.16634104360130822
tp676
a(I709
F0.16634314773531642
tp677
a(I115
F0.16665891071181094
tp678
a(I1428
F0.1667520296563572
tp679
a(I1611
F0.16675432162783332
tp680
a(I1380
F0.16774713725885104
tp681
a(I1471
F0.1678968378423062
tp682
a(I250
F0.16825070533092634
tp683
a(I354
F0.16969389974889224
tp684
a(I61
F0.17141727479943483
tp685
a(I1629
F0.17190845370187421
tp686
a(I270
F0.17200942138236666
tp687
a(I47
F0.17250072968486366
tp688
a(I378
F0.17343031687316002
tp689
a(I448
F0.17356794355638627
tp690
a(I893
F0.17366601974968932
tp691
a(I1358
F0.17368860468595398
tp692
a(I1185
F0.173736823354434
tp693
a(I1148
F0.17401464694205343
tp694
a(I1572
F0.17466619383740178
tp695
a(I998
F0.17490725798028833
tp696
a(I392
F0.17516076143106588
tp697
a(I824
F0.17598262902167675
tp698
a(I1758
F0.17612150379904462
tp699
a(I1273
F0.1761596608880027
tp700
a(I458
F0.17652319901439414
tp701
a(I67
F0.17691494180026712
tp702
a(I488
F0.1773043667487481
tp703
a(I1531
F0.1774055515251815
tp704
a(I92
F0.17834804208438745
tp705
a(I185
F0.1783850455177592
tp706
a(I468
F0.17842521978394862
tp707
a(I903
F0.17852543832281728
tp708
a(I1054
F0.178526900707725
tp709
a(I116
F0.17901232169431194
tp710
a(I994
F0.18049230825231524
tp711
a(I422
F0.18066012509941903
tp712
a(I1039
F0.18070599469498608
tp713
a(I851
F0.1808981031664952
tp714
a(I268
F0.18100567686190372
tp715
a(I1043
F0.18145291665344054
tp716
a(I343
F0.1815599068068815
tp717
a(I1021
F0.1817340629109586
tp718
a(I524
F0.18219478651876306
tp719
a(I1219
F0.18245958761251607
tp720
a(I1840
F0.18264291530561125
tp721
a(I569
F0.1827103947820997
tp722
a(I275
F0.182774560714168
tp723
a(I1156
F0.18362779006779045
tp724
a(I941
F0.18374859273984617
tp725
a(I621
F0.1843886387680255
tp726
a(I1029
F0.18441875274624786
tp727
a(I928
F0.18509288255250625
tp728
a(I559
F0.18560652817405526
tp729
a(I1003
F0.185668750350639
tp730
a(I1365
F0.18592983325206464
tp731
a(I1806
F0.18615757600386718
tp732
a(I1692
F0.1868102028955041
tp733
a(I433
F0.18779725300792247
tp734
a(I1797
F0.18793509921214047
tp735
a(I347
F0.18821624678799
tp736
a(I884
F0.18825466590346634
tp737
a(I1348
F0.18856113925665674
tp738
a(I1315
F0.1889729034637097
tp739
a(I1422
F0.18918924856649044
tp740
a(I520
F0.18920000686377814
tp741
a(I1533
F0.1897524263099203
tp742
a(I1282
F0.18990614889974103
tp743
a(I1152
F0.18994047282919102
tp744
a(I977
F0.1899964291058224
tp745
a(I593
F0.19008430695511397
tp746
a(I690
F0.19052720119307798
tp747
a(I1142
F0.19117902136579523
tp748
a(I243
F0.19143131046366701
tp749
a(I324
F0.19170225374535882
tp750
a(I1249
F0.19207759085321327
tp751
a(I363
F0.19220954753408168
tp752
a(I637
F0.1925961564164097
tp753
a(I1227
F0.19315551329213926
tp754
a(I223
F0.19356965750010716
tp755
a(I1119
F0.19532206910432717
tp756
a(I402
F0.1959118175224425
tp757
a(I1090
F0.19636194647499958
tp758
a(I394
F0.19649107169477814
tp759
a(I396
F0.19717798770446485
tp760
a(I618
F0.1972065746427871
tp761
a(I636
F0.19743215306333084
tp762
a(I348
F0.19749534225142515
tp763
a(I1244
F0.19756567318469684
tp764
a(I581
F0.19831198466237612
tp765
a(I586
F0.19914664748045965
tp766
a(I128
F0.1996291502249784
tp767
a(I552
F0.20021378155531522
tp768
a(I948
F0.20023004031270022
tp769
a(I133
F0.2005297762349803
tp770
a(I724
F0.20127763942897126
tp771
a(I425
F0.20144181842181916
tp772
a(I562
F0.2034457149562383
tp773
a(I885
F0.2034566284141138
tp774
a(I304
F0.2035108890435465
tp775
a(I431
F0.20459045144678156
tp776
a(I1234
F0.20462862920932984
tp777
a(I1243
F0.20463634592630553
tp778
a(I1232
F0.2052661818945011
tp779
a(I1330
F0.20580347109524344
tp780
a(I830
F0.2058512290129763
tp781
a(I465
F0.2063107012021883
tp782
a(I531
F0.20644379124598433
tp783
a(I1436
F0.20654195584798046
tp784
a(I1593
F0.20656071464128317
tp785
a(I127
F0.2079259299275096
tp786
a(I427
F0.208276968854769
tp787
a(I696
F0.20835839963038397
tp788
a(I240
F0.20842849637482505
tp789
a(I1534
F0.21036091274123217
tp790
a(I183
F0.21114893617902228
tp791
a(I1541
F0.21123166364417137
tp792
a(I1423
F0.21177521917652087
tp793
a(I1115
F0.211868338347527
tp794
a(I1221
F0.21232213730027863
tp795
a(I831
F0.21247304481864107
tp796
a(I120
F0.21251125202105314
tp797
a(I1304
F0.2126630183676997
tp798
a(I1019
F0.21301990808770083
tp799
a(I1819
F0.2139431419205602
tp800
a(I1366
F0.21480830956857055
tp801
a(I759
F0.21491655025849649
tp802
a(I148
F0.21550143788609308
tp803
a(I1095
F0.21552717277590547
tp804
a(I1159
F0.21568584969266558
tp805
a(I303
F0.21584283650468816
tp806
a(I492
F0.21587772057664106
tp807
a(I311
F0.21768723694151632
tp808
a(I1359
F0.21779077438999478
tp809
a(I987
F0.21788432128566462
tp810
a(I260
F0.21803610132193135
tp811
a(I622
F0.21808105773469755
tp812
a(I753
F0.21846721637736638
tp813
a(I936
F0.218472048126749
tp814
a(I1372
F0.2199083973247192
tp815
a(I194
F0.22258123205500444
tp816
a(I1353
F0.22382269961564902
tp817
a(I629
F0.22408819190311047
tp818
a(I1697
F0.22448670437279766
tp819
a(I1041
F0.22458408092006812
tp820
a(I1467
F0.22485190196927196
tp821
a(I959
F0.22491261021672998
tp822
a(I1236
F0.22515564898923923
tp823
a(I1384
F0.22564401672114298
tp824
a(I1146
F0.22573088877418232
tp825
a(I129
F0.22578614088121723
tp826
a(I1682
F0.22647060823244536
tp827
a(I1432
F0.2268725288658632
tp828
a(I1216
F0.22764903479262807
tp829
a(I1288
F0.22883937116415715
tp830
a(I679
F0.22921250347902847
tp831
a(I1405
F0.22979387653823172
tp832
a(I671
F0.23028405142261094
tp833
a(I1377
F0.23031603879957732
tp834
a(I650
F0.23060693869308108
tp835
a(I1066
F0.23152011966353434
tp836
a(I1842
F0.23166034652403744
tp837
a(I1020
F0.23220699665551162
tp838
a(I387
F0.23265832423919164
tp839
a(I1253
F0.2329059820331014
tp840
a(I478
F0.23327363682363805
tp841
a(I718
F0.23428633183218212
tp842
a(I1355
F0.23581221427842475
tp843
a(I591
F0.2362156351557698
tp844
a(I665
F0.23654539768106625
tp845
a(I1128
F0.23761354057839987
tp846
a(I483
F0.23767981838515428
tp847
a(I1454
F0.23979952999873516
tp848
a(I1254
F0.24004327200829903
tp849
a(I773
F0.2400511582053538
tp850
a(I673
F0.24058963494843108
tp851
a(I76
F0.24164109069594245
tp852
a(I1573
F0.2430295646161267
tp853
a(I450
F0.2439213110822276
tp854
a(I495
F0.24427514093561595
tp855
a(I952
F0.245509791056914
tp856
a(I512
F0.24646807730582848
tp857
a(I706
F0.24771868716598758
tp858
a(I538
F0.2477438533597587
tp859
a(I1002
F0.24793020085370154
tp860
a(I1361
F0.24814500959735847
tp861
a(I574
F0.24833778366064568
tp862
a(I821
F0.2486842292023228
tp863
a(I52
F0.25013461261159053
tp864
a(I889
F0.25060422820332534
tp865
a(I592
F0.2507348229551154
tp866
a(I443
F0.25079246136832656
tp867
a(I1382
F0.2510756125292193
tp868
a(I174
F0.2523144453042783
tp869
a(I1398
F0.25282079870311547
tp870
a(I1356
F0.2530336810630618
tp871
a(I1397
F0.2531104206407078
tp872
a(I408
F0.25383949818535323
tp873
a(I619
F0.25409076189965346
tp874
a(I855
F0.25531916969688495
tp875
a(I1837
F0.25567378261712803
tp876
a(I1035
F0.2558668486281822
tp877
a(I1312
F0.25655957871699153
tp878
a(I168
F0.2566276858102005
tp879
a(I1429
F0.25705127913637077
tp880
a(I611
F0.25718485220136794
tp881
a(I1245
F0.2578006199360612
tp882
a(I136
F0.2587171688209965
tp883
a(I951
F0.2587353295603985
tp884
a(I770
F0.2592174804684049
tp885
a(I907
F0.2603949417139603
tp886
a(I791
F0.26045698912133736
tp887
a(I980
F0.26148396011843944
tp888
a(I1710
F0.2625197797026907
tp889
a(I1729
F0.26295819147538113
tp890
a(I815
F0.2641798939199673
tp891
a(I155
F0.26463690542931334
tp892
a(I848
F0.2648176871346124
tp893
a(I1289
F0.26504498843168506
tp894
a(I90
F0.2672316034233117
tp895
a(I437
F0.26737507559651497
tp896
a(I103
F0.26744644738795714
tp897
a(I1389
F0.2674823195249206
tp898
a(I1603
F0.2677265625413065
tp899
a(I1324
F0.26894340409752576
tp900
a(I1475
F0.26932875913284043
tp901
a(I140
F0.26947089606583596
tp902
a(I578
F0.26953999821926944
tp903
a(I886
F0.2698276079762421
tp904
a(I1775
F0.2700793035341604
tp905
a(I1621
F0.2708515525146867
tp906
a(I955
F0.27093292281187376
tp907
a(I866
F0.2711445743842553
tp908
a(I626
F0.2712977295391768
tp909
a(I401
F0.27135987244269366
tp910
a(I1373
F0.27149070337313064
tp911
a(I1537
F0.2723282936028585
tp912
a(I1060
F0.2723456797597296
tp913
a(I301
F0.27268267181648104
tp914
a(I1480
F0.27330649664656204
tp915
a(I1337
F0.27331523951214126
tp916
a(I1396
F0.27344019687851046
tp917
a(I1746
F0.2734922751995853
tp918
a(I199
F0.27641405454259516
tp919
a(I1136
F0.27720891268510034
tp920
a(I1515
F0.27765154348439314
tp921
a(I380
F0.27805869658820537
tp922
a(I1451
F0.2781256458594597
tp923
a(I860
F0.2790534065147968
tp924
a(I957
F0.2794804747025505
tp925
a(I339
F0.2797837445857717
tp926
a(I763
F0.2799981391246823
tp927
a(I1110
F0.2807847099499114
tp928
a(I802
F0.28249760588435463
tp929
a(I1184
F0.28374419360066294
tp930
a(I485
F0.28448234844906056
tp931
a(I266
F0.28472460060946747
tp932
a(I1458
F0.28528972439628086
tp933
a(I1285
F0.2856819278278634
tp934
a(I898
F0.28736381015242146
tp935
a(I1242
F0.287453843878661
tp936
a(I474
F0.28750362491073644
tp937
a(I191
F0.2884795408677348
tp938
a(I891
F0.2890423061492031
tp939
a(I1484
F0.28923290880186614
tp940
a(I1305
F0.2910816764045853
tp941
a(I1357
F0.29205584282371877
tp942
a(I15
F0.2923472031242241
tp943
a(I1284
F0.2923918860529762
tp944
a(I659
F0.29341951681067846
tp945
a(I787
F0.293461037840255
tp946
a(I1379
F0.29396394895544475
tp947
a(I850
F0.2940354516011471
tp948
a(I1663
F0.29408049559417354
tp949
a(I1122
F0.29430443320538446
tp950
a(I722
F0.29471222146679515
tp951
a(I75
F0.2947613330757476
tp952
a(I964
F0.29516258053530625
tp953
a(I784
F0.2964906900040001
tp954
a(I1056
F0.297364215287352
tp955
a(I794
F0.2973731159624306
tp956
a(I1339
F0.2976157197008745
tp957
a(I501
F0.29770971426251336
tp958
a(I897
F0.2979140500075858
tp959
a(I1870
F0.29842054792049694
tp960
a(I1176
F0.2986806818381437
tp961
a(I1326
F0.30100215707920047
tp962
a(I255
F0.30254186568912583
tp963
a(I1295
F0.30278402931017545
tp964
a(I978
F0.30318250964332155
tp965
a(I643
F0.303948546371767
tp966
a(I407
F0.3043121634093797
tp967
a(I1327
F0.304959169959144
tp968
a(I367
F0.3056431290910316
tp969
a(I1511
F0.30769845321325384
tp970
a(I361
F0.30848240271452915
tp971
a(I1047
F0.30917326632784636
tp972
a(I1325
F0.30951377488311943
tp973
a(I1172
F0.3098151644723337
tp974
a(I1664
F0.30987939909874757
tp975
a(I1488
F0.31224383691764723
tp976
a(I1166
F0.31372868582671226
tp977
a(I1371
F0.31494679102533585
tp978
a(I1473
F0.31514598055719484
tp979
a(I83
F0.31514726763160594
tp980
a(I668
F0.3153998549872037
tp981
a(I412
F0.31693983063693476
tp982
a(I193
F0.3191120939346865
tp983
a(I333
F0.31931764911503524
tp984
a(I1464
F0.31937539213937616
tp985
a(I272
F0.3194584482442354
tp986
a(I823
F0.3197930373764109
tp987
a(I1391
F0.320293855477977
tp988
a(I1098
F0.3209750456209782
tp989
a(I297
F0.3212137078052309
tp990
a(I3
F0.32133636272656324
tp991
a(I1290
F0.3215480906420702
tp992
a(I1132
F0.3219358884198531
tp993
a(I731
F0.32218599918921437
tp994
a(I1248
F0.32218969995859875
tp995
a(I1698
F0.322822150162595
tp996
a(I566
F0.32348151528600827
tp997
a(I1443
F0.3251254762886064
tp998
a(I1749
F0.3252686579621235
tp999
a(I484
F0.32539483267858177
tp1000
a(I1049
F0.3258352614951018
tp1001
a(I63
F0.32598728302078694
tp1002
a(I782
F0.32609557642452275
tp1003
a(I438
F0.32612009871878095
tp1004
a(I281
F0.3261677138049702
tp1005
a(I124
F0.32724251950479327
tp1006
a(I1360
F0.32737017982573924
tp1007
a(I274
F0.3278568827972752
tp1008
a(I682
F0.32851028302679003
tp1009
a(I17
F0.3297788598846702
tp1010
a(I1420
F0.32995219252351604
tp1011
a(I700
F0.3306515789148661
tp1012
a(I1446
F0.33183924829129086
tp1013
a(I1368
F0.33217996086066004
tp1014
a(I429
F0.333375254391747
tp1015
a(I1641
F0.33340676783966317
tp1016
a(I660
F0.33351384535581513
tp1017
a(I1182
F0.33386034005152426
tp1018
a(I252
F0.334467702173336
tp1019
a(I1722
F0.3345612284171204
tp1020
a(I284
F0.33621713772282164
tp1021
a(I473
F0.3369835221091141
tp1022
a(I496
F0.3369835221091141
tp1023
a(I1626
F0.33712421206895765
tp1024
a(I1716
F0.3386837020529878
tp1025
a(I600
F0.33883811036561445
tp1026
a(I1081
F0.33887273493311043
tp1027
a(I38
F0.33892745238910466
tp1028
a(I119
F0.33917690051095833
tp1029
a(I1099
F0.3394550587325002
tp1030
a(I1667
F0.3396320953945076
tp1031
a(I1033
F0.3404372838960731
tp1032
a(I1193
F0.3405657056418154
tp1033
a(I132
F0.34450873876207067
tp1034
a(I1750
F0.3447438948692816
tp1035
a(I1409
F0.3457848014807064
tp1036
a(I1712
F0.3459541750995951
tp1037
a(I989
F0.3469502443502646
tp1038
a(I628
F0.34697164114753953
tp1039
a(I827
F0.3472890778542507
tp1040
a(I1077
F0.34734514985277004
tp1041
a(I1543
F0.34767958012265465
tp1042
a(I752
F0.34774362613889737
tp1043
a(I1017
F0.34840183984530615
tp1044
a(I1785
F0.3498082958834238
tp1045
a(I795
F0.35020924460037084
tp1046
a(I1031
F0.3507802528852128
tp1047
a(I1759
F0.35120502670364045
tp1048
a(I1801
F0.3513682081209578
tp1049
a(I1268
F0.3514504393797564
tp1050
a(I1124
F0.3516041025176282
tp1051
a(I577
F0.35172211986013463
tp1052
a(I1461
F0.3520279769294742
tp1053
a(I1456
F0.3527605771231877
tp1054
a(I548
F0.35337058309591407
tp1055
a(I500
F0.35397883785920586
tp1056
a(I1036
F0.3540558545917815
tp1057
a(I1
F0.3542476263660465
tp1058
a(I518
F0.3551363522230136
tp1059
a(I350
F0.35514354768196443
tp1060
a(I171
F0.35526922931709903
tp1061
a(I943
F0.35683731856125656
tp1062
a(I551
F0.3575882728550264
tp1063
a(I101
F0.35989350270470827
tp1064
a(I1690
F0.3602508006196625
tp1065
a(I1231
F0.36151530142857535
tp1066
a(I639
F0.36158640532968517
tp1067
a(I627
F0.3619926014683784
tp1068
a(I1435
F0.3627414814924482
tp1069
a(I1251
F0.3629105751595821
tp1070
a(I1577
F0.36301882114779993
tp1071
a(I546
F0.3636203586822477
tp1072
a(I499
F0.36418952043679875
tp1073
a(I1681
F0.36459528911994266
tp1074
a(I1472
F0.3649861559360236
tp1075
a(I1406
F0.36575561596247075
tp1076
a(I1138
F0.3664680008906701
tp1077
a(I1211
F0.36822038775552673
tp1078
a(I505
F0.3701423684196553
tp1079
a(I837
F0.37197729048180805
tp1080
a(I1028
F0.3722885940986908
tp1081
a(I365
F0.37232321826282067
tp1082
a(I694
F0.37355106386254067
tp1083
a(I1297
F0.3738009891382957
tp1084
a(I1192
F0.3782927342310546
tp1085
a(I717
F0.37833653907546305
tp1086
a(I283
F0.37852937048798085
tp1087
a(I1609
F0.3788364157162788
tp1088
a(I550
F0.3790389293000147
tp1089
a(I1189
F0.37987528331142734
tp1090
a(I139
F0.3818458412339956
tp1091
a(I905
F0.38347476436435934
tp1092
a(I175
F0.3837500771906379
tp1093
a(I1252
F0.38378301123052905
tp1094
a(I1201
F0.38444091621231763
tp1095
a(I1452
F0.38465850138423374
tp1096
a(I267
F0.3854861115918465
tp1097
a(I630
F0.3856020232726151
tp1098
a(I646
F0.38624628953450696
tp1099
a(I1199
F0.38679271923425146
tp1100
a(I1388
F0.3875274790613727
tp1101
a(I1707
F0.3877662841715385
tp1102
a(I1046
F0.3884766194059075
tp1103
a(I1107
F0.38888388242381644
tp1104
a(I944
F0.38971682634906124
tp1105
a(I340
F0.39004062623689806
tp1106
a(I1512
F0.39011223942136036
tp1107
a(I1258
F0.39094242808380375
tp1108
a(I1578
F0.39103558165708474
tp1109
a(I206
F0.39216220061818585
tp1110
a(I638
F0.39260215448078506
tp1111
a(I1642
F0.3927673962581593
tp1112
a(I1171
F0.39361886256078343
tp1113
a(I1460
F0.39459626259530173
tp1114
a(I327
F0.39497846613107407
tp1115
a(I849
F0.3962739615773735
tp1116
a(I1292
F0.3962897999912445
tp1117
a(I1238
F0.3967546305494941
tp1118
a(I1266
F0.3977586717458094
tp1119
a(I875
F0.39963721059637863
tp1120
a(I1198
F0.40113665350623257
tp1121
a(I1447
F0.4020280647371618
tp1122
a(I64
F0.4023664244359075
tp1123
a(I256
F0.40263206531516155
tp1124
a(I965
F0.4029958878745249
tp1125
a(I196
F0.40371109295232666
tp1126
a(I1433
F0.40411911639289827
tp1127
a(I1275
F0.4051432056581301
tp1128
a(I1570
F0.4065033445690556
tp1129
a(I305
F0.4066619915858699
tp1130
a(I570
F0.40721675623641634
tp1131
a(I871
F0.4080631986130179
tp1132
a(I1393
F0.408663076953904
tp1133
a(I1818
F0.4087212868001977
tp1134
a(I1856
F0.41004254457053213
tp1135
a(I730
F0.4102377052609145
tp1136
a(I670
F0.4109877458650793
tp1137
a(I822
F0.4118910677060157
tp1138
a(I1677
F0.41490918661540793
tp1139
a(I1194
F0.41514289703952595
tp1140
a(I1308
F0.41703124778398
tp1141
a(I556
F0.41736435969296937
tp1142
a(I1604
F0.41897253680389723
tp1143
a(I176
F0.41900349283170985
tp1144
a(I859
F0.4197008296843431
tp1145
a(I1202
F0.4217068458972764
tp1146
a(I1301
F0.4229543324272749
tp1147
a(I179
F0.4242100131372476
tp1148
a(I1768
F0.42434586049069944
tp1149
a(I542
F0.42736590216195597
tp1150
a(I966
F0.42757236049076186
tp1151
a(I813
F0.4278958599558675
tp1152
a(I1127
F0.4282174418152281
tp1153
a(I1727
F0.4283785994917708
tp1154
a(I195
F0.4284134084519057
tp1155
a(I872
F0.42944797897308584
tp1156
a(I366
F0.42946763151459805
tp1157
a(I1519
F0.43008693102176193
tp1158
a(I599
F0.4302505296678976
tp1159
a(I760
F0.4305402467311407
tp1160
a(I1608
F0.43205156632402475
tp1161
a(I1539
F0.4349068358795072
tp1162
a(I1233
F0.4354161319425494
tp1163
a(I1700
F0.43565710140124947
tp1164
a(I557
F0.43875347614994753
tp1165
a(I1381
F0.4406040521963397
tp1166
a(I567
F0.4431571176977867
tp1167
a(I1754
F0.4440497777487576
tp1168
a(I1316
F0.4441651539537123
tp1169
a(I1394
F0.44526889354788524
tp1170
a(I1313
F0.44662265746194924
tp1171
a(I878
F0.4494908768798122
tp1172
a(I1756
F0.449534289220342
tp1173
a(I1478
F0.4495372992613289
tp1174
a(I1218
F0.45168610452491625
tp1175
a(I1165
F0.4530803257894444
tp1176
a(I490
F0.454935717676053
tp1177
a(I1097
F0.4554189570734589
tp1178
a(I1332
F0.45667052107687345
tp1179
a(I1600
F0.4569336093684537
tp1180
a(I1177
F0.4574537164356916
tp1181
a(I1392
F0.4591149464177845
tp1182
a(I1695
F0.46151397332913
tp1183
a(I766
F0.463004587653922
tp1184
a(I667
F0.4641532554192861
tp1185
a(I1100
F0.46415648043118574
tp1186
a(I1791
F0.46477031214972997
tp1187
a(I1116
F0.4648751495716068
tp1188
a(I1479
F0.4654042054543401
tp1189
a(I1803
F0.4677897951577097
tp1190
a(I1057
F0.4712851544522066
tp1191
a(I623
F0.4720296767337873
tp1192
a(I1208
F0.47216495109850004
tp1193
a(I1013
F0.4731193132605075
tp1194
a(I1538
F0.4764282721627092
tp1195
a(I633
F0.4770223721053176
tp1196
a(I1298
F0.47722605893915393
tp1197
a(I1181
F0.47759280066845416
tp1198
a(I853
F0.47763946075849245
tp1199
a(I1278
F0.4791786953008593
tp1200
a(I1190
F0.4800241745105867
tp1201
a(I1364
F0.481163687512181
tp1202
a(I1789
F0.4819824436862903
tp1203
a(I321
F0.48283382689208904
tp1204
a(I785
F0.4841452046962566
tp1205
a(I289
F0.4849924766765515
tp1206
a(I125
F0.4868050636703495
tp1207
a(I1351
F0.4868517609049939
tp1208
a(I734
F0.4869077704418115
tp1209
a(I188
F0.4871219652013902
tp1210
a(I335
F0.4889520172652497
tp1211
a(I997
F0.48914740259319367
tp1212
a(I1269
F0.4912758606541963
tp1213
a(I1294
F0.49259426585038596
tp1214
a(I761
F0.4947846662575897
tp1215
a(I988
F0.4970858639575499
tp1216
a(I1782
F0.4989999715005128
tp1217
a(I856
F0.49902735191883785
tp1218
a(I563
F0.4999176186725651
tp1219
a(I1329
F0.5000036009125819
tp1220
a(I1349
F0.5000516373448249
tp1221
a(I1771
F0.5002722150886564
tp1222
a(I1776
F0.5002853712819892
tp1223
a(I1610
F0.5003006754586725
tp1224
a(I1751
F0.5004987121685589
tp1225
a(I901
F0.50052850291672
tp1226
a(I424
F0.5007621808025421
tp1227
a(I814
F0.5011934010906307
tp1228
a(I573
F0.5015145706207127
tp1229
a(I1569
F0.501645320441127
tp1230
a(I1737
F0.5020137790518551
tp1231
a(I1878
F0.5020564098775748
tp1232
a(I1684
F0.5022705281690201
tp1233
a(I1723
F0.5024570150286225
tp1234
a(I1163
F0.5036382906545936
tp1235
a(I1431
F0.5042220486311921
tp1236
a(I1861
F0.5051602748192636
tp1237
a(I1213
F0.5052667577455753
tp1238
a(I756
F0.5053063163706978
tp1239
a(I1760
F0.5055597220182523
tp1240
a(I489
F0.5077667693748873
tp1241
a(I1168
F0.5079331237286114
tp1242
a(I1571
F0.5081021025832588
tp1243
a(I1509
F0.5082013405161478
tp1244
a(I553
F0.5082870458048939
tp1245
a(I579
F0.5083113006497838
tp1246
a(I1673
F0.5091108011866011
tp1247
a(I1586
F0.5096072975698888
tp1248
a(I1503
F0.5103736733045416
tp1249
a(I423
F0.5105588912743119
tp1250
a(I1693
F0.5106970857316243
tp1251
a(I1597
F0.511558183784603
tp1252
a(I798
F0.512778238853522
tp1253
a(I571
F0.5129428080486215
tp1254
a(I1400
F0.5132959185198347
tp1255
a(I1865
F0.5134592859287651
tp1256
a(I1091
F0.5137963441969865
tp1257
a(I1549
F0.5138391681005717
tp1258
a(I1034
F0.5145196263145277
tp1259
a(I1590
F0.5154166046568123
tp1260
a(I661
F0.5154176861753076
tp1261
a(I1053
F0.5167615098371434
tp1262
a(I349
F0.5170115984168606
tp1263
a(I1784
F0.5176692352570013
tp1264
a(I1832
F0.5191763897269106
tp1265
a(I205
F0.5191987988255503
tp1266
a(I1517
F0.5195261364197492
tp1267
a(I1650
F0.5206274330181386
tp1268
a(I958
F0.5207874655662167
tp1269
a(I249
F0.521621450105112
tp1270
a(I1514
F0.5235181015320005
tp1271
a(I1256
F0.525405991880947
tp1272
a(I118
F0.5263756178352774
tp1273
a(I708
F0.5264490678872021
tp1274
a(I1476
F0.5266009592328936
tp1275
a(I1485
F0.5268456002852361
tp1276
a(I1753
F0.5279147691498116
tp1277
a(I852
F0.5280292291467206
tp1278
a(I1619
F0.5282776229196673
tp1279
a(I1718
F0.5284169329218968
tp1280
a(I166
F0.528767546847603
tp1281
a(I1374
F0.5308768907479495
tp1282
a(I1250
F0.5317466370919343
tp1283
a(I1207
F0.5338264916983961
tp1284
a(I812
F0.5356742019938229
tp1285
a(I657
F0.5358156776373034
tp1286
a(I1378
F0.5360130243481417
tp1287
a(I1286
F0.5367291544112901
tp1288
a(I384
F0.5383783003931533
tp1289
a(I208
F0.5402492843164365
tp1290
a(I1532
F0.5402492843164365
tp1291
a(I1314
F0.540761093621268
tp1292
a(I1602
F0.5408808523069939
tp1293
a(I258
F0.5413532307713347
tp1294
a(I1317
F0.5413833138278945
tp1295
a(I1161
F0.5414363640723991
tp1296
a(I1598
F0.5418377880237082
tp1297
a(I1794
F0.5425928893569287
tp1298
a(I996
F0.5444674500395219
tp1299
a(I1778
F0.5450047937153969
tp1300
a(I1880
F0.5450186308717507
tp1301
a(I1508
F0.5450948402553533
tp1302
a(I1799
F0.5455253057234594
tp1303
a(I1463
F0.5456780983178113
tp1304
a(I1257
F0.5461230685929582
tp1305
a(I1787
F0.5465353208218305
tp1306
a(I655
F0.5471569090170955
tp1307
a(I1713
F0.5480168241375604
tp1308
a(I1336
F0.5494671119705857
tp1309
a(I584
F0.5496027912018238
tp1310
a(I476
F0.5497787573193958
tp1311
a(I585
F0.5505817896237685
tp1312
a(I1516
F0.5520756194079816
tp1313
a(I1607
F0.5538864232242235
tp1314
a(I1717
F0.5539715991591027
tp1315
a(I251
F0.5542345749305513
tp1316
a(I1645
F0.560818494347366
tp1317
a(I754
F0.5609643293327118
tp1318
a(I1131
F0.5626620276029173
tp1319
a(I130
F0.5627790560245506
tp1320
a(I1805
F0.5635100557149944
tp1321
a(I1613
F0.5643076150596894
tp1322
a(I1696
F0.5657955328801635
tp1323
a(I1197
F0.5661010961700847
tp1324
a(I923
F0.5670384383393959
tp1325
a(I1135
F0.5719735040671883
tp1326
a(I870
F0.5729212423811313
tp1327
a(I1196
F0.5732952210245224
tp1328
a(I876
F0.5747867691798237
tp1329
a(I877
F0.5747867691798237
tp1330
a(I479
F0.575997130935035
tp1331
a(I1203
F0.5774826931169245
tp1332
a(I137
F0.5784976061318271
tp1333
a(I873
F0.5786864528851873
tp1334
a(I1407
F0.5792989426782809
tp1335
a(I1852
F0.580226576538277
tp1336
a(I1550
F0.5805995895434516
tp1337
a(I1612
F0.5806778357845699
tp1338
a(I902
F0.5845311171855654
tp1339
a(I1240
F0.58560916910499
tp1340
a(I1200
F0.5896101548943773
tp1341
a(I477
F0.5924453934251155
tp1342
a(I738
F0.5927437580787028
tp1343
a(I247
F0.5934432948225292
tp1344
a(I1665
F0.5936847415339269
tp1345
a(I1078
F0.5962203678394168
tp1346
a(I675
F0.5968275973484616
tp1347
a(I1748
F0.5983931875947552
tp1348
a(I580
F0.600426667825436
tp1349
a(I631
F0.601758308252126
tp1350
a(I1283
F0.6055978258038491
tp1351
a(I1439
F0.6068415163344315
tp1352
a(I858
F0.6069630962129202
tp1353
a(I1437
F0.6113317897261914
tp1354
a(I135
F0.6127103344157938
tp1355
a(I1542
F0.613542976137513
tp1356
a(I1501
F0.6137573944072092
tp1357
a(I732
F0.6140383636663385
tp1358
a(I229
F0.6146055161264892
tp1359
a(I1547
F0.6147462453873274
tp1360
a(I820
F0.6154055746974043
tp1361
a(I1390
F0.6214416132831251
tp1362
a(I1812
F0.6222086761224106
tp1363
a(I1553
F0.6225148453863875
tp1364
a(I1685
F0.6227144882667941
tp1365
a(I1575
F0.6235118633440662
tp1366
a(I645
F0.625279711638937
tp1367
a(I1386
F0.6273185553754299
tp1368
a(I1548
F0.629329690647712
tp1369
a(I1859
F0.629615197089741
tp1370
a(I503
F0.6301698106596756
tp1371
a(I1321
F0.6302092545504527
tp1372
a(I1280
F0.6312489622496925
tp1373
a(I1416
F0.6344856793367353
tp1374
a(I1540
F0.6354392931512305
tp1375
a(I1675
F0.6363054579529812
tp1376
a(I1851
F0.6367175967615188
tp1377
a(I735
F0.6400454626927866
tp1378
a(I1628
F0.6401548518183724
tp1379
a(I945
F0.6426789260686827
tp1380
a(I1215
F0.6433893176239593
tp1381
a(I742
F0.6436896843093378
tp1382
a(I1796
F0.6476204437403316
tp1383
a(I440
F0.6493628392502295
tp1384
a(I1483
F0.6510931432579381
tp1385
a(I1470
F0.6544807864141258
tp1386
a(I1363
F0.6569808991039083
tp1387
a(I745
F0.6570496418173715
tp1388
a(I881
F0.6570919580345185
tp1389
a(I1592
F0.6575813653870732
tp1390
a(I1817
F0.6582908801731903
tp1391
a(I1412
F0.6616068995735451
tp1392
a(I572
F0.6672307484367002
tp1393
a(I1427
F0.668833653398667
tp1394
a(I590
F0.6696595226980135
tp1395
a(I819
F0.6727493106529896
tp1396
a(I1425
F0.6760799015014713
tp1397
a(I1831
F0.676641131752807
tp1398
a(I1704
F0.6820511295986582
tp1399
a(I733
F0.6877894072404649
tp1400
a(I1734
F0.6879001881204868
tp1401
a(I1574
F0.6880563753471336
tp1402
a(I1588
F0.6880569458007812
tp1403
a(I1529
F0.6922892445670639
tp1404
a(I1666
F0.6923419826659996
tp1405
a(I1661
F0.6941035552093462
tp1406
a(I750
F0.6945789139334
tp1407
a(I1546
F0.6948971690317063
tp1408
a(I310
F0.6965421629232403
tp1409
a(I338
F0.6980635388581995
tp1410
a(I1173
F0.7005699450970452
tp1411
a(I1688
F0.7012562935846622
tp1412
a(I300
F0.7020899221833092
tp1413
a(I1860
F0.7026855697515481
tp1414
a(I1755
F0.7066239250850881
tp1415
a(I1082
F0.7080558605529771
tp1416
a(I1810
F0.7083143988025327
tp1417
a(I1747
F0.7093410444931367
tp1418
a(I736
F0.7094478611651335
tp1419
a(I995
F0.7106736314655524
tp1420
a(I740
F0.7120590901554744
tp1421
a(I1825
F0.7154399204994863
tp1422
a(I634
F0.716684567412423
tp1423
a(I269
F0.7179022656484144
tp1424
a(I337
F0.7198596154164478
tp1425
a(I1117
F0.7200620380509519
tp1426
a(I1255
F0.7267867949972625
tp1427
a(I1239
F0.7274549904199377
tp1428
a(I1763
F0.7303910357559598
tp1429
a(I1644
F0.7307066647768128
tp1430
a(I1855
F0.7325519360527271
tp1431
a(I1505
F0.7327649954377757
tp1432
a(I644
F0.7348651606898555
tp1433
a(I1793
F0.7428171031586823
tp1434
a(I1887
F0.743655763106202
tp1435
a(I1346
F0.7450145672580379
tp1436
a(I192
F0.7463314461194248
tp1437
a(I1709
F0.7492889826556277
tp1438
a(I942
F0.7525666535693902
tp1439
a(I1134
F0.7580629786467901
tp1440
a(I295
F0.7603483075282869
tp1441
a(I1820
F0.760894957199737
tp1442
a(I1689
F0.7618446025107648
tp1443
a(I1457
F0.7625313278733681
tp1444
a(I316
F0.7631412380564577
tp1445
a(I632
F0.7710014274746704
tp1446
a(I1229
F0.7715405017821342
tp1447
a(I1774
F0.7734245627657135
tp1448
a(I1636
F0.7791854993828708
tp1449
a(I1302
F0.7829822685030838
tp1450
a(I114
F0.7857458513820329
tp1451
a(I1362
F0.7927986723441982
tp1452
a(I1535
F0.7930621921662012
tp1453
a(I764
F0.7966007528887704
tp1454
a(I1711
F0.8083564748316256
tp1455
a(I1518
F0.8116164264729941
tp1456
a(I1530
F0.8135197547024546
tp1457
a(I1736
F0.8173688802823971
tp1458
a(I857
F0.8228165402656966
tp1459
a(I625
F0.8363705169129116
tp1460
a(I1556
F0.8385832158680886
tp1461
a(I1576
F0.8444065158719548
tp1462
a(I1813
F0.8467718950277269
tp1463
a(I1662
F0.8522405023693405
tp1464
a(I1672
F0.8543691511018786
tp1465
a(I1630
F0.8555623207276015
tp1466
a(I749
F0.859749764491233
tp1467
a(I1719
F0.8614385980188985
tp1468
a(I204
F0.8656494714419445
tp1469
a(I1829
F0.8658311980691793
tp1470
a(I1563
F0.868293738073342
tp1471
a(I892
F0.8705211335387308
tp1472
a(I1826
F0.8752799399196927
tp1473
a(I1489
F0.8916263752980307
tp1474
a(I1674
F0.894191228652607
tp1475
a(I299
F0.8960312610925527
tp1476
a(I894
F0.8983000541773656
tp1477
a(I1769
F0.9000001876647179
tp1478
a(I1246
F0.9037810755538016
tp1479
a(I1691
F0.908788905342147
tp1480
a(I382
F0.9165030436215655
tp1481
a(I1658
F0.9226548392829073
tp1482
a(I565
F0.9258108180263394
tp1483
a(I1264
F0.9312458289706854
tp1484
a(I1552
F0.9317069582812136
tp1485
a(I1652
F0.9382965995764536
tp1486
a(I751
F0.9419642279391298
tp1487
a(I182
F0.9437999052940902
tp1488
a(I143
F0.9493010435035938
tp1489
a(I582
F0.956196246562462
tp1490
a(I864
F0.9631167354130323
tp1491
a(I1160
F0.9649290957363421
tp1492
a(I1526
F0.9670418558957798
tp1493
a(I1195
F0.9677303899193894
tp1494
a(I1614
F0.9777560841053403
tp1495
a(I109
F0.9822177073574878
tp1496
a(I1616
F0.9831449711616422
tp1497
a(I1885
F0.9946476745786144
tp1498
a(I1854
F0.9949903717072435
tp1499
a(I1874
F0.995084011822793
tp1500
a(I1599
F0.996387635512022
tp1501
a(I1620
F0.9969673169588191
tp1502
a(I472
F0.9972291610270811
tp1503
a(I741
F0.9973932921555531
tp1504
a(I1670
F0.9979313220357386
tp1505
a(I4
F1.0
tp1506
a(I7
F1.0
tp1507
a(I9
F1.0
tp1508
a(I10
F1.0
tp1509
a(I18
F1.0
tp1510
a(I134
F1.0
tp1511
a(I138
F1.0
tp1512
a(I142
F1.0
tp1513
a(I144
F1.0
tp1514
a(I146
F1.0
tp1515
a(I178
F1.0
tp1516
a(I180
F1.0
tp1517
a(I200
F1.0
tp1518
a(I207
F1.0
tp1519
a(I209
F1.0
tp1520
a(I210
F1.0
tp1521
a(I211
F1.0
tp1522
a(I212
F1.0
tp1523
a(I245
F1.0
tp1524
a(I253
F1.0
tp1525
a(I273
F1.0
tp1526
a(I306
F1.0
tp1527
a(I307
F1.0
tp1528
a(I308
F1.0
tp1529
a(I309
F1.0
tp1530
a(I312
F1.0
tp1531
a(I313
F1.0
tp1532
a(I314
F1.0
tp1533
a(I315
F1.0
tp1534
a(I317
F1.0
tp1535
a(I318
F1.0
tp1536
a(I320
F1.0
tp1537
a(I322
F1.0
tp1538
a(I332
F1.0
tp1539
a(I344
F1.0
tp1540
a(I345
F1.0
tp1541
a(I346
F1.0
tp1542
a(I351
F1.0
tp1543
a(I368
F1.0
tp1544
a(I369
F1.0
tp1545
a(I370
F1.0
tp1546
a(I383
F1.0
tp1547
a(I409
F1.0
tp1548
a(I410
F1.0
tp1549
a(I411
F1.0
tp1550
a(I413
F1.0
tp1551
a(I414
F1.0
tp1552
a(I415
F1.0
tp1553
a(I434
F1.0
tp1554
a(I451
F1.0
tp1555
a(I452
F1.0
tp1556
a(I475
F1.0
tp1557
a(I480
F1.0
tp1558
a(I481
F1.0
tp1559
a(I491
F1.0
tp1560
a(I494
F1.0
tp1561
a(I511
F1.0
tp1562
a(I549
F1.0
tp1563
a(I564
F1.0
tp1564
a(I575
F1.0
tp1565
a(I576
F1.0
tp1566
a(I583
F1.0
tp1567
a(I588
F1.0
tp1568
a(I624
F1.0
tp1569
a(I654
F1.0
tp1570
a(I656
F1.0
tp1571
a(I719
F1.0
tp1572
a(I727
F1.0
tp1573
a(I729
F1.0
tp1574
a(I737
F1.0
tp1575
a(I739
F1.0
tp1576
a(I743
F1.0
tp1577
a(I744
F1.0
tp1578
a(I746
F1.0
tp1579
a(I747
F1.0
tp1580
a(I748
F1.0
tp1581
a(I762
F1.0
tp1582
a(I765
F1.0
tp1583
a(I768
F1.0
tp1584
a(I769
F1.0
tp1585
a(I772
F1.0
tp1586
a(I776
F1.0
tp1587
a(I777
F1.0
tp1588
a(I778
F1.0
tp1589
a(I779
F1.0
tp1590
a(I788
F1.0
tp1591
a(I789
F1.0
tp1592
a(I790
F1.0
tp1593
a(I792
F1.0
tp1594
a(I793
F1.0
tp1595
a(I797
F1.0
tp1596
a(I811
F1.0
tp1597
a(I816
F1.0
tp1598
a(I817
F1.0
tp1599
a(I818
F1.0
tp1600
a(I861
F1.0
tp1601
a(I862
F1.0
tp1602
a(I868
F1.0
tp1603
a(I880
F1.0
tp1604
a(I883
F1.0
tp1605
a(I912
F1.0
tp1606
a(I919
F1.0
tp1607
a(I920
F1.0
tp1608
a(I937
F1.0
tp1609
a(I946
F1.0
tp1610
a(I953
F1.0
tp1611
a(I954
F1.0
tp1612
a(I974
F1.0
tp1613
a(I975
F1.0
tp1614
a(I1005
F1.0
tp1615
a(I1022
F1.0
tp1616
a(I1025
F1.0
tp1617
a(I1037
F1.0
tp1618
a(I1044
F1.0
tp1619
a(I1048
F1.0
tp1620
a(I1050
F1.0
tp1621
a(I1051
F1.0
tp1622
a(I1067
F1.0
tp1623
a(I1068
F1.0
tp1624
a(I1101
F1.0
tp1625
a(I1102
F1.0
tp1626
a(I1108
F1.0
tp1627
a(I1111
F1.0
tp1628
a(I1120
F1.0
tp1629
a(I1126
F1.0
tp1630
a(I1162
F1.0
tp1631
a(I1164
F1.0
tp1632
a(I1167
F1.0
tp1633
a(I1180
F1.0
tp1634
a(I1183
F1.0
tp1635
a(I1191
F1.0
tp1636
a(I1204
F1.0
tp1637
a(I1205
F1.0
tp1638
a(I1206
F1.0
tp1639
a(I1209
F1.0
tp1640
a(I1210
F1.0
tp1641
a(I1212
F1.0
tp1642
a(I1214
F1.0
tp1643
a(I1217
F1.0
tp1644
a(I1225
F1.0
tp1645
a(I1228
F1.0
tp1646
a(I1237
F1.0
tp1647
a(I1241
F1.0
tp1648
a(I1247
F1.0
tp1649
a(I1259
F1.0
tp1650
a(I1260
F1.0
tp1651
a(I1261
F1.0
tp1652
a(I1262
F1.0
tp1653
a(I1263
F1.0
tp1654
a(I1265
F1.0
tp1655
a(I1267
F1.0
tp1656
a(I1270
F1.0
tp1657
a(I1272
F1.0
tp1658
a(I1274
F1.0
tp1659
a(I1291
F1.0
tp1660
a(I1306
F1.0
tp1661
a(I1307
F1.0
tp1662
a(I1318
F1.0
tp1663
a(I1319
F1.0
tp1664
a(I1320
F1.0
tp1665
a(I1322
F1.0
tp1666
a(I1333
F1.0
tp1667
a(I1369
F1.0
tp1668
a(I1376
F1.0
tp1669
a(I1385
F1.0
tp1670
a(I1387
F1.0
tp1671
a(I1395
F1.0
tp1672
a(I1401
F1.0
tp1673
a(I1402
F1.0
tp1674
a(I1403
F1.0
tp1675
a(I1404
F1.0
tp1676
a(I1410
F1.0
tp1677
a(I1411
F1.0
tp1678
a(I1413
F1.0
tp1679
a(I1415
F1.0
tp1680
a(I1419
F1.0
tp1681
a(I1421
F1.0
tp1682
a(I1424
F1.0
tp1683
a(I1430
F1.0
tp1684
a(I1434
F1.0
tp1685
a(I1440
F1.0
tp1686
a(I1441
F1.0
tp1687
a(I1442
F1.0
tp1688
a(I1444
F1.0
tp1689
a(I1445
F1.0
tp1690
a(I1448
F1.0
tp1691
a(I1453
F1.0
tp1692
a(I1455
F1.0
tp1693
a(I1459
F1.0
tp1694
a(I1465
F1.0
tp1695
a(I1468
F1.0
tp1696
a(I1469
F1.0
tp1697
a(I1474
F1.0
tp1698
a(I1477
F1.0
tp1699
a(I1481
F1.0
tp1700
a(I1482
F1.0
tp1701
a(I1486
F1.0
tp1702
a(I1487
F1.0
tp1703
a(I1490
F1.0
tp1704
a(I1491
F1.0
tp1705
a(I1492
F1.0
tp1706
a(I1493
F1.0
tp1707
a(I1494
F1.0
tp1708
a(I1495
F1.0
tp1709
a(I1496
F1.0
tp1710
a(I1497
F1.0
tp1711
a(I1498
F1.0
tp1712
a(I1499
F1.0
tp1713
a(I1500
F1.0
tp1714
a(I1502
F1.0
tp1715
a(I1506
F1.0
tp1716
a(I1507
F1.0
tp1717
a(I1513
F1.0
tp1718
a(I1520
F1.0
tp1719
a(I1521
F1.0
tp1720
a(I1522
F1.0
tp1721
a(I1523
F1.0
tp1722
a(I1527
F1.0
tp1723
a(I1528
F1.0
tp1724
a(I1544
F1.0
tp1725
a(I1545
F1.0
tp1726
a(I1551
F1.0
tp1727
a(I1554
F1.0
tp1728
a(I1555
F1.0
tp1729
a(I1557
F1.0
tp1730
a(I1558
F1.0
tp1731
a(I1559
F1.0
tp1732
a(I1560
F1.0
tp1733
a(I1561
F1.0
tp1734
a(I1562
F1.0
tp1735
a(I1564
F1.0
tp1736
a(I1565
F1.0
tp1737
a(I1566
F1.0
tp1738
a(I1567
F1.0
tp1739
a(I1568
F1.0
tp1740
a(I1579
F1.0
tp1741
a(I1580
F1.0
tp1742
a(I1581
F1.0
tp1743
a(I1582
F1.0
tp1744
a(I1583
F1.0
tp1745
a(I1584
F1.0
tp1746
a(I1585
F1.0
tp1747
a(I1587
F1.0
tp1748
a(I1589
F1.0
tp1749
a(I1591
F1.0
tp1750
a(I1594
F1.0
tp1751
a(I1595
F1.0
tp1752
a(I1596
F1.0
tp1753
a(I1601
F1.0
tp1754
a(I1605
F1.0
tp1755
a(I1606
F1.0
tp1756
a(I1615
F1.0
tp1757
a(I1617
F1.0
tp1758
a(I1622
F1.0
tp1759
a(I1623
F1.0
tp1760
a(I1624
F1.0
tp1761
a(I1625
F1.0
tp1762
a(I1627
F1.0
tp1763
a(I1631
F1.0
tp1764
a(I1632
F1.0
tp1765
a(I1634
F1.0
tp1766
a(I1635
F1.0
tp1767
a(I1637
F1.0
tp1768
a(I1638
F1.0
tp1769
a(I1639
F1.0
tp1770
a(I1640
F1.0
tp1771
a(I1643
F1.0
tp1772
a(I1646
F1.0
tp1773
a(I1647
F1.0
tp1774
a(I1648
F1.0
tp1775
a(I1649
F1.0
tp1776
a(I1651
F1.0
tp1777
a(I1653
F1.0
tp1778
a(I1654
F1.0
tp1779
a(I1655
F1.0
tp1780
a(I1656
F1.0
tp1781
a(I1657
F1.0
tp1782
a(I1659
F1.0
tp1783
a(I1660
F1.0
tp1784
a(I1668
F1.0
tp1785
a(I1671
F1.0
tp1786
a(I1676
F1.0
tp1787
a(I1679
F1.0
tp1788
a(I1680
F1.0
tp1789
a(I1683
F1.0
tp1790
a(I1686
F1.0
tp1791
a(I1694
F1.0
tp1792
a(I1699
F1.0
tp1793
a(I1701
F1.0
tp1794
a(I1702
F1.0
tp1795
a(I1703
F1.0
tp1796
a(I1705
F1.0
tp1797
a(I1706
F1.0
tp1798
a(I1708
F1.0
tp1799
a(I1714
F1.0
tp1800
a(I1715
F1.0
tp1801
a(I1720
F1.0
tp1802
a(I1721
F1.0
tp1803
a(I1724
F1.0
tp1804
a(I1725
F1.0
tp1805
a(I1726
F1.0
tp1806
a(I1730
F1.0
tp1807
a(I1731
F1.0
tp1808
a(I1732
F1.0
tp1809
a(I1733
F1.0
tp1810
a(I1735
F1.0
tp1811
a(I1738
F1.0
tp1812
a(I1740
F1.0
tp1813
a(I1742
F1.0
tp1814
a(I1743
F1.0
tp1815
a(I1744
F1.0
tp1816
a(I1745
F1.0
tp1817
a(I1752
F1.0
tp1818
a(I1757
F1.0
tp1819
a(I1761
F1.0
tp1820
a(I1762
F1.0
tp1821
a(I1764
F1.0
tp1822
a(I1765
F1.0
tp1823
a(I1766
F1.0
tp1824
a(I1767
F1.0
tp1825
a(I1770
F1.0
tp1826
a(I1772
F1.0
tp1827
a(I1777
F1.0
tp1828
a(I1779
F1.0
tp1829
a(I1780
F1.0
tp1830
a(I1783
F1.0
tp1831
a(I1788
F1.0
tp1832
a(I1790
F1.0
tp1833
a(I1792
F1.0
tp1834
a(I1795
F1.0
tp1835
a(I1798
F1.0
tp1836
a(I1802
F1.0
tp1837
a(I1804
F1.0
tp1838
a(I1807
F1.0
tp1839
a(I1808
F1.0
tp1840
a(I1809
F1.0
tp1841
a(I1811
F1.0
tp1842
a(I1814
F1.0
tp1843
a(I1815
F1.0
tp1844
a(I1816
F1.0
tp1845
a(I1821
F1.0
tp1846
a(I1822
F1.0
tp1847
a(I1823
F1.0
tp1848
a(I1824
F1.0
tp1849
a(I1827
F1.0
tp1850
a(I1828
F1.0
tp1851
a(I1830
F1.0
tp1852
a(I1833
F1.0
tp1853
a(I1834
F1.0
tp1854
a(I1835
F1.0
tp1855
a(I1836
F1.0
tp1856
a(I1838
F1.0
tp1857
a(I1839
F1.0
tp1858
a(I1841
F1.0
tp1859
a(I1843
F1.0
tp1860
a(I1844
F1.0
tp1861
a(I1845
F1.0
tp1862
a(I1846
F1.0
tp1863
a(I1847
F1.0
tp1864
a(I1848
F1.0
tp1865
a(I1849
F1.0
tp1866
a(I1850
F1.0
tp1867
a(I1853
F1.0
tp1868
a(I1857
F1.0
tp1869
a(I1858
F1.0
tp1870
a(I1862
F1.0
tp1871
a(I1863
F1.0
tp1872
a(I1864
F1.0
tp1873
a(I1866
F1.0
tp1874
a(I1867
F1.0
tp1875
a(I1868
F1.0
tp1876
a(I1869
F1.0
tp1877
a(I1871
F1.0
tp1878
a(I1872
F1.0
tp1879
a(I1873
F1.0
tp1880
a(I1875
F1.0
tp1881
a(I1876
F1.0
tp1882
a(I1877
F1.0
tp1883
a(I1879
F1.0
tp1884
a(I1881
F1.0
tp1885
a(I1882
F1.0
tp1886
a(I1883
F1.0
tp1887
a(I1884
F1.0
tp1888
a(I1886
F1.0
tp1889
a(I1888
F1.0
tp1890
a(I1889
F1.0
tp1891
a(I1890
F1.0
tp1892
a(I1891
F1.0
tp1893
a.